((lp0
(lp1
S'489719193'
p2
aS'Pvalb-IRES-Cre'
p3
aF94.9634964667483
aFnan
aF97.51302759580051
aFnan
aFnan
aa(lp4
S'518271679'
p5
aS'Scnn1a-Tg2-Cre'
p6
aF57.715149340265505
aF63.5860435431267
aF57.935879975055705
aF68.4959305464329
aF68.2719668829143
aa(lp7
S'481004298'
p8
aS'Htr3a-Cre_NO152'
p9
aF67.3019490606483
aFnan
aF92.49352175695999
aFnan
aFnan
aa(lp10
S'569469018'
p11
aS'Chrna2-Cre_OE25'
p12
aF85.2322588692983
aFnan
aF86.1394597106957
aFnan
aFnan
aa(lp13
S'314900022'
p14
aS'Scnn1a-Tg3-Cre'
p15
aF56.62413075466159
aFnan
aF54.7307563736548
aFnan
aFnan
aa(lp16
S'476178907'
p17
aS'Scnn1a-Tg3-Cre'
p18
aF65.7871839523932
aF67.7748503392804
aF57.7618382969348
aF64.722507207765
aF64.487018083728
aa(lp19
S'485058595'
p20
aS'Sst-IRES-Cre'
p21
aF71.80381620456801
aFnan
aF71.24681640205151
aFnan
aFnan
aa(lp22
S'501730497'
p23
aS'Sst-IRES-Cre'
p24
aF57.178117417553
aFnan
aF70.3017297582282
aFnan
aFnan
aa(lp25
S'564346637'
p26
aS'Ndnf-IRES2-dgCre'
p27
aF46.1030845106594
aF50.5987808660984
aF50.7339720889768
aF50.3863488010231
aF55.6074228042541
aa(lp28
S'555060623'
p29
aS'Chrna2-Cre_OE25'
p30
aF62.90315022294391
aFnan
aF49.789382141042
aFnan
aFnan
aa(lp31
S'501280518'
p32
aS'Sst-IRES-Cre'
p33
aF69.8749356077728
aFnan
aF75.88922635266701
aFnan
aFnan
aa(lp34
S'479150681'
p35
aS'Rbp4-Cre_KL100'
p36
aF66.44489710811649
aFnan
aF61.0099730118143
aFnan
aFnan
aa(lp37
S'386049446'
p38
aS'Nr5a1-Cre'
p39
aF58.214987453073995
aFnan
aF72.1251254597246
aFnan
aFnan
aa(lp40
S'483091812'
p41
aS'Rorb-IRES2-Cre-D'
p42
aF46.0868933944535
aFnan
aF68.2847113363739
aFnan
aFnan
aa(lp43
S'485339983'
p44
aS'Ntsr1-Cre_GN220'
p45
aF72.6419402382836
aF64.9950598953944
aF69.2196699949901
aF75.4835825616386
aF80.06442769735371
aa(lp46
S'485577686'
p47
aS'Rbp4-Cre_KL100'
p48
aF68.4569741072946
aF64.1109152489893
aF71.1227968201555
aF75.91187040202601
aF75.7144694767978
aa(lp49
S'581058864'
p50
aS'Nkx2-1-CreERT2'
p51
aF83.2222588452719
aFnan
aF90.84155836986429
aFnan
aFnan
aa(lp52
S'482654108'
p53
aS'Htr3a-Cre_NO152'
p54
aF69.9216882948535
aF57.47293546929279
aF92.8516814323702
aF92.6045646113292
aF92.74312706979549
aa(lp55
S'485932822'
p56
aS'Cux2-CreERT2'
p57
aF73.8164657956034
aFnan
aF81.85760940843771
aFnan
aFnan
aa(lp58
S'561520050'
p59
aS'Nkx2-1-CreERT2'
p60
aF74.9533266859135
aFnan
aF73.7925702807006
aFnan
aFnan
aa(lp61
S'513879001'
p62
aS'Scnn1a-Tg3-Cre'
p63
aF49.9418102869122
aFnan
aF56.1740520788377
aFnan
aFnan
aa(lp64
S'567029686'
p65
aS'Nkx2-1-CreERT2'
p66
aF50.8434434505094
aFnan
aF43.7445608285244
aFnan
aFnan
aa(lp67
S'580895033'
p68
aS'Chrna2-Cre_OE25'
p69
aF98.3810807305087
aF98.89527263965739
aF97.20656772184189
aF98.3816449506429
aF98.3643486774882
aa(lp70
S'570010469'
p71
aS'Chrna2-Cre_OE25'
p72
aF62.57415348202719
aFnan
aF44.0607409815512
aFnan
aFnan
aa(lp73
S'577218818'
p74
aS'Chat-IRES-Cre-neo'
p75
aF66.6330520770958
aFnan
aF79.05451986873659
aFnan
aFnan
aa(lp76
S'469800845'
p77
aS'Scnn1a-Tg3-Cre'
p78
aF72.3602341187694
aFnan
aF56.6758416293448
aFnan
aFnan
aa(lp79
S'327648537'
p80
aS'Htr3a-Cre_NO152'
p81
aF76.8957755875457
aF60.499697714864894
aF94.6901541279489
aF94.2194681397546
aF94.1472798313097
aa(lp82
S'501562903'
p83
aS'Ntsr1-Cre_GN220'
p84
aF77.42995181829741
aFnan
aF90.6934264682131
aFnan
aFnan
aa(lp85
S'512322162'
p86
aS'Ctgf-2A-dgCre'
p87
aF72.9571664936591
aF68.9201993309959
aF55.649356999435696
aF78.2635104399276
aF83.54852530310029
aa(lp88
S'490263438'
p89
aS'Ntsr1-Cre_GN220'
p90
aF81.5738966988907
aF62.15070181475561
aF87.572239518052
aF92.8980542316891
aF91.0371890982463
aa(lp91
S'485889190'
p92
aS'Rorb-IRES2-Cre-D'
p93
aF74.69294764959899
aFnan
aF62.3169033956726
aFnan
aFnan
aa(lp94
S'505808144'
p95
aS'Nr5a1-Cre'
p96
aF80.5195998622824
aFnan
aF81.1773168664794
aFnan
aFnan
aa(lp97
S'527869035'
p98
aS'Ndnf-IRES2-dgCre'
p99
aF86.5060630071679
aF83.98983918012371
aF91.2171845359707
aF91.5567967038129
aF91.5954381815012
aa(lp100
S'501951290'
p101
aS'Rorb-IRES2-Cre-D'
p102
aF73.86645600790091
aF66.2189292100727
aF47.9745166925449
aF59.716803103096105
aF60.462874463680706
aa(lp103
S'566673170'
p104
aS'Nkx2-1-CreERT2'
p105
aF71.9596969398412
aFnan
aF69.8880297878359
aFnan
aFnan
aa(lp106
S'502267531'
p107
aS'Nr5a1-Cre'
p108
aF57.179902515283096
aF62.1538389463716
aF59.814605949215505
aF65.42085287934259
aF67.0762518857632
aa(lp109
S'490931049'
p110
aS'Rbp4-Cre_KL100'
p111
aF48.6348014667915
aFnan
aF38.554608556602
aFnan
aFnan
aa(lp112
S'485838981'
p113
aS'Rbp4-Cre_KL100'
p114
aF83.6604559588856
aF68.3767826519944
aF75.6986100608588
aF84.509357278396
aF85.5827854450398
aa(lp115
S'476054829'
p116
aS'Scnn1a-Tg2-Cre'
p117
aF51.6448214910598
aFnan
aF42.827757028555006
aFnan
aFnan
aa(lp118
S'367567889'
p119
aS'Nr5a1-Cre'
p120
aF68.5442659717327
aFnan
aF67.6640004322464
aFnan
aFnan
aa(lp121
S'503517607'
p122
aS'Ntsr1-Cre_GN220'
p123
aF57.0667900057539
aFnan
aF41.796116605542
aFnan
aFnan
aa(lp124
S'502382506'
p125
aS'Sst-IRES-Cre'
p126
aF81.64018262727491
aF79.8883019096717
aF81.4168729804396
aF81.478256722962
aF82.82691422040361
aa(lp127
S'484635029'
p128
aS'Pvalb-IRES-Cre'
p129
aF93.08996998516899
aF90.9263486372273
aF97.5321940357799
aF97.2898814208301
aF97.09404709154529
aa(lp130
S'474626527'
p131
aS'Htr3a-Cre_NO152'
p132
aF74.1915891472624
aFnan
aF86.0542657307397
aFnan
aFnan
aa(lp133
S'485955227'
p134
aS'Cux2-CreERT2'
p135
aF67.3803291409416
aFnan
aF57.6039699034693
aFnan
aFnan
aa(lp136
S'528501887'
p137
aS'Ctgf-2A-dgCre'
p138
aF37.0338726280407
aF49.101165883411
aF33.814619101576696
aF41.7658396864515
aF30.9333241595281
aa(lp139
S'502574847'
p140
aS'Rorb-IRES2-Cre-D'
p141
aF74.7015942495588
aF71.7203994190119
aF77.0428116756901
aF77.572578288913
aF77.7506451284236
aa(lp142
S'313861608'
p143
aS'Pvalb-IRES-Cre'
p144
aF96.8530614937373
aFnan
aF97.4023371275986
aFnan
aFnan
aa(lp145
S'515949222'
p146
aS'Cux2-CreERT2'
p147
aF74.4214278812421
aFnan
aF80.4861684621333
aFnan
aFnan
aa(lp148
S'481018305'
p149
aS'Pvalb-IRES-Cre'
p150
aF93.5486914369491
aF88.504515214785
aF96.4779495415037
aF96.9674940050553
aF96.8251565916592
aa(lp151
S'480353286'
p152
aS'Rorb-IRES2-Cre-D'
p153
aF57.560136037857305
aF58.0445088201551
aF48.0227563166043
aF57.5633564996172
aF52.3538410711047
aa(lp154
S'489751959'
p155
aS'Cux2-CreERT2'
p156
aF69.046637788074
aF64.0319765394683
aF75.4445971339301
aF76.7008066300897
aF76.9410264377216
aa(lp157
S'483018019'
p158
aS'Cux2-CreERT2'
p159
aF66.20838533620001
aFnan
aF56.9304970265785
aFnan
aFnan
aa(lp160
S'476129135'
p161
aS'Scnn1a-Tg3-Cre'
p162
aF59.2545249007445
aFnan
aF33.0567806764271
aFnan
aFnan
aa(lp163
S'478439166'
p164
aS'Nr5a1-Cre'
p165
aF72.3193532614561
aFnan
aF75.8263080380074
aFnan
aFnan
aa(lp166
S'478498617'
p167
aS'Rorb-IRES2-Cre-D'
p168
aF55.86116322657651
aF65.22435943035791
aF67.2859627396838
aF66.27440791369091
aF68.1925927155212
aa(lp169
S'473951795'
p170
aS'Htr3a-Cre_NO152'
p171
aF35.2292771661888
aFnan
aF48.9643977026255
aFnan
aFnan
aa(lp172
S'563373346'
p173
aS'Nkx2-1-CreERT2'
p174
aF65.5652288105277
aFnan
aF72.3101103581677
aFnan
aFnan
aa(lp175
S'483027960'
p176
aS'Nr5a1-Cre'
p177
aF76.0260342849706
aFnan
aF85.9918678671763
aFnan
aFnan
aa(lp178
S'561329890'
p179
aS'Nkx2-1-CreERT2'
p180
aF63.961064547344606
aFnan
aF61.7183020326295
aFnan
aFnan
aa(lp181
S'486921382'
p182
aS'Htr3a-Cre_NO152'
p183
aF64.6933077253515
aFnan
aF77.3774409550248
aFnan
aFnan
aa(lp184
S'502873181'
p185
aS'Rorb-IRES2-Cre-D'
p186
aF51.002295387282906
aFnan
aF45.1502694074507
aFnan
aFnan
aa(lp187
S'475625477'
p188
aS'Htr3a-Cre_NO152'
p189
aF57.1585455712853
aF66.64604985552451
aF63.37005769276251
aF68.5064619193613
aF72.9928608069311
aa(lp190
S'486239338'
p191
aS'Cux2-CreERT2'
p192
aF61.898805138371706
aF72.4420322109427
aF61.652148620213396
aF69.7112092544737
aF69.93725948764849
aa(lp193
S'320455763'
p194
aS'Pvalb-IRES-Cre'
p195
aF96.0412767518437
aFnan
aF96.0239425394234
aFnan
aFnan
aa(lp196
S'329224678'
p197
aS'Sst-IRES-Cre'
p198
aF86.50114632378501
aF83.7907684126652
aF87.30780804579351
aF85.2339799368789
aF87.7940027054242
aa(lp199
S'487663469'
p200
aS'Rbp4-Cre_KL100'
p201
aF84.8777490294445
aF60.573894917797396
aF81.3006629746024
aF82.8334863143546
aF84.9674877109358
aa(lp202
S'517753911'
p203
aS'Rorb-IRES2-Cre-D'
p204
aF58.7447598031267
aFnan
aF43.305401612634896
aFnan
aFnan
aa(lp205
S'487176969'
p206
aS'Htr3a-Cre_NO152'
p207
aF87.0061128872752
aF83.6046118716833
aF90.1409777607918
aF83.4813262685529
aF82.9813841158076
aa(lp208
S'505512874'
p209
aS'Cux2-CreERT2'
p210
aF73.9055523189667
aFnan
aF85.3499334440304
aFnan
aFnan
aa(lp211
S'523478869'
p212
aS'Vip-IRES-Cre'
p213
aF77.5466526170543
aFnan
aF84.475353216249
aFnan
aFnan
aa(lp214
S'501014504'
p215
aS'Rbp4-Cre_KL100'
p216
aF73.15645186555359
aFnan
aF86.7250595261343
aFnan
aFnan
aa(lp217
S'320207387'
p218
aS'Scnn1a-Tg3-Cre'
p219
aF71.9041040511848
aF68.2678069942582
aF89.4046170447377
aF90.3569623908939
aF90.5775028835997
aa(lp220
S'397348126'
p221
aS'Nr5a1-Cre'
p222
aF63.7933302431246
aFnan
aF66.65896818917561
aFnan
aFnan
aa(lp223
S'469763389'
p224
aS'Rorb-IRES2-Cre-D'
p225
aF78.0187655304404
aFnan
aF79.16889683216701
aFnan
aFnan
aa(lp226
S'481017021'
p227
aS'Pvalb-IRES-Cre'
p228
aF88.7198082804568
aFnan
aF89.5701283148022
aFnan
aFnan
aa(lp229
S'478447600'
p230
aS'Nr5a1-Cre'
p231
aF68.0454260858006
aF71.4633443710795
aF71.54652039532169
aF72.5571594328689
aF76.8545086830956
aa(lp232
S'475512108'
p233
aS'Sst-IRES-Cre'
p234
aF94.54255568992251
aFnan
aF95.82264977111899
aFnan
aFnan
aa(lp235
S'341459814'
p236
aS'Pvalb-IRES-Cre'
p237
aF96.2307430272791
aFnan
aF97.3365261508795
aFnan
aFnan
aa(lp238
S'476100382'
p239
aS'Sst-IRES-Cre'
p240
aF73.1716826553458
aF74.4371341875791
aF68.2267474486189
aF69.353194233118
aF69.8314333199365
aa(lp241
S'488430487'
p242
aS'Ntsr1-Cre_GN220'
p243
aF77.7475755372986
aFnan
aF85.0828571334303
aFnan
aFnan
aa(lp244
S'526946319'
p245
aS'Ctgf-2A-dgCre'
p246
aF75.1340005661966
aFnan
aF75.2288515777373
aFnan
aFnan
aa(lp247
S'486110216'
p248
aS'Rbp4-Cre_KL100'
p249
aF68.5873210335273
aFnan
aF83.8428219102962
aFnan
aFnan
aa(lp250
S'479298854'
p251
aS'Pvalb-IRES-Cre'
p252
aF92.756834909423
aFnan
aF96.0124105330063
aFnan
aFnan
aa(lp253
S'500894271'
p254
aS'Rorb-IRES2-Cre-D'
p255
aF77.7790338451751
aFnan
aF80.7813345706338
aFnan
aFnan
aa(lp256
S'556369531'
p257
aS'Chrna2-Cre_OE25'
p258
aF50.7197838335367
aF48.662158597319596
aF49.5661352350169
aF46.5097807033642
aF48.2192635585446
aa(lp259
S'487661754'
p260
aS'Cux2-CreERT2'
p261
aF56.637557194523204
aFnan
aF54.4064526846781
aFnan
aFnan
aa(lp262
S'464191630'
p263
aS'Htr3a-Cre_NO152'
p264
aF63.675942799361394
aFnan
aF69.5949677377654
aFnan
aFnan
aa(lp265
S'489731121'
p266
aS'Nr5a1-Cre'
p267
aF69.0555732695322
aF65.4813195061181
aF60.090059200355704
aF76.44144729734799
aF76.6453349911844
aa(lp268
S'522152249'
p269
aS'Ntsr1-Cre_GN220'
p270
aF62.407186543794005
aF54.311749769441896
aF68.2504059207776
aF70.8323110383726
aF74.9232535640253
aa(lp271
S'556363725'
p272
aS'Chrna2-Cre_OE25'
p273
aF77.9355688582839
aFnan
aF85.5980211292075
aFnan
aFnan
aa(lp274
S'485958978'
p275
aS'Cux2-CreERT2'
p276
aF71.902293426404
aF61.1904041405905
aF75.83942951462261
aF77.8504633333199
aF75.6840163497825
aa(lp277
S'488683425'
p278
aS'Rbp4-Cre_KL100'
p279
aF91.3840287546259
aFnan
aF88.8848230134159
aFnan
aFnan
aa(lp280
S'479225294'
p281
aS'Rorb-IRES2-Cre-D'
p282
aF61.8875660988366
aFnan
aF57.9121645123708
aFnan
aFnan
aa(lp283
S'482649712'
p284
aS'Htr3a-Cre_NO152'
p285
aF79.88687222519741
aFnan
aF92.9693417882935
aFnan
aFnan
aa(lp286
S'318808427'
p287
aS'Nr5a1-Cre'
p288
aF67.02930152033531
aFnan
aF80.3682628514546
aFnan
aFnan
aa(lp289
S'502999078'
p290
aS'Cux2-CreERT2'
p291
aF60.0905583934467
aFnan
aF21.909529512693098
aFnan
aFnan
aa(lp292
S'324032509'
p293
aS'Rorb-IRES2-Cre-D'
p294
aF62.438814058921
aF70.7598861539474
aF68.3554037143342
aF64.7058556187627
aF71.404629459093
aa(lp295
S'482516631'
p296
aS'Pvalb-IRES-Cre'
p297
aF43.371023472997
aF46.0227933691334
aF56.17157850572
aF58.842430759377294
aF60.856920104259004
aa(lp298
S'569477234'
p299
aS'Chrna2-Cre_OE25'
p300
aF78.6103836506464
aF73.24238144687169
aF92.0074709074114
aF92.2491390455874
aF92.82427344823219
aa(lp301
S'479508018'
p302
aS'Rorb-IRES2-Cre-D'
p303
aF74.14879675109401
aF71.9441684521569
aF77.2669354878466
aF77.4301749731553
aF77.6090948072924
aa(lp304
S'504643398'
p305
aS'Cux2-CreERT2'
p306
aF62.524228337798604
aFnan
aF73.7498089545994
aFnan
aFnan
aa(lp307
S'476764144'
p308
aS'Sst-IRES-Cre'
p309
aF33.8075316798159
aFnan
aF17.4534958085441
aFnan
aFnan
aa(lp310
S'526951157'
p311
aS'Ctgf-2A-dgCre'
p312
aF69.84137919986469
aFnan
aF52.6733821122055
aFnan
aFnan
aa(lp313
S'397353539'
p314
aS'Nr5a1-Cre'
p315
aF70.6713379929118
aFnan
aF68.0552450154604
aFnan
aFnan
aa(lp316
S'479225080'
p317
aS'Rorb-IRES2-Cre-D'
p318
aF57.2843553948979
aF65.1274348097384
aF51.1196097660094
aF55.2510099912891
aF55.3877999265024
aa(lp319
S'490283519'
p320
aS'Scnn1a-Tg2-Cre'
p321
aF56.6371515843892
aF68.4824835367439
aF65.7003254091723
aF65.51174428761401
aF66.015178404039
aa(lp322
S'570459682'
p323
aS'Chat-IRES-Cre-neo'
p324
aF66.3788582014953
aFnan
aF60.82450649032089
aFnan
aFnan
aa(lp325
S'515202564'
p326
aS'Scnn1a-Tg3-Cre'
p327
aF66.6341604023026
aFnan
aF55.611878936157
aFnan
aFnan
aa(lp328
S'481127348'
p329
aS'Pvalb-IRES-Cre'
p330
aF95.035288807158
aFnan
aF96.4346353652542
aFnan
aFnan
aa(lp331
S'484770879'
p332
aS'Rorb-IRES2-Cre-D'
p333
aF85.0806022450107
aFnan
aF87.327900747196
aFnan
aFnan
aa(lp334
S'504608602'
p335
aS'Sst-IRES-Cre'
p336
aF55.9981850145301
aF54.472116501437796
aF55.9800431890679
aF56.06000916031319
aF49.5838471148692
aa(lp337
S'566305266'
p338
aS'Nkx2-1-CreERT2'
p339
aF94.4043130485943
aF96.0219329067042
aF92.130273797607
aF94.2894883714837
aF93.720415268116
aa(lp340
S'490205998'
p341
aS'Scnn1a-Tg2-Cre'
p342
aF74.494744721901
aF61.1070759852357
aF75.1460156326243
aF75.19296634051959
aF77.5898924346714
aa(lp343
S'480273887'
p344
aS'Rorb-IRES2-Cre-D'
p345
aF57.494668019676396
aF57.225270382900895
aF35.3588861746983
aF51.05084733185959
aF50.4587538715054
aa(lp346
S'481093525'
p347
aS'Pvalb-IRES-Cre'
p348
aF97.38870944824221
aFnan
aF97.6012613015995
aFnan
aFnan
aa(lp349
S'501570114'
p350
aS'Vip-IRES-Cre'
p351
aF69.512464359152
aF70.36610865833251
aF76.20231750176359
aF83.0584926608742
aF82.4942018791138
aa(lp352
S'471789504'
p353
aS'Ntsr1-Cre_GN220'
p354
aF74.00652040279991
aFnan
aF87.1823330003887
aFnan
aFnan
aa(lp355
S'500966656'
p356
aS'Sst-IRES-Cre'
p357
aF60.648838245357595
aFnan
aF73.1356238460435
aFnan
aFnan
aa(lp358
S'482690728'
p359
aS'Sst-IRES-Cre'
p360
aF93.5669929582252
aFnan
aF93.3308948812067
aFnan
aFnan
aa(lp361
S'480778441'
p362
aS'Rorb-IRES2-Cre-D'
p363
aF54.4340667766041
aFnan
aF46.710792798313
aFnan
aFnan
aa(lp364
S'514767977'
p365
aS'Vip-IRES-Cre'
p366
aF72.3551890391402
aFnan
aF77.4013305671517
aFnan
aFnan
aa(lp367
S'480999763'
p368
aS'Htr3a-Cre_NO152'
p369
aF83.4127336400519
aF81.02628003508589
aF83.2589386894864
aF87.028537594385
aF87.1590588737178
aa(lp370
S'517319635'
p371
aS'Cux2-CreERT2'
p372
aF79.35078837618231
aFnan
aF79.6092740054582
aFnan
aFnan
aa(lp373
S'579981789'
p374
aS'Ndnf-IRES2-dgCre'
p375
aF65.0067991258544
aF61.622212947420294
aF73.3125173379926
aF75.8872529371051
aF81.4108425498762
aa(lp376
S'471131311'
p377
aS'Rbp4-Cre_KL100'
p378
aF76.6404025696221
aF70.6938298301612
aF71.36849146073901
aF75.82827190270271
aF77.478179333994
aa(lp379
S'485579168'
p380
aS'Rbp4-Cre_KL100'
p381
aF68.1164799338152
aF71.10688674275039
aF59.7770528786288
aF69.6882169452465
aF73.1308283923743
aa(lp382
S'325919795'
p383
aS'Rbp4-Cre_KL100'
p384
aF68.10920911581691
aFnan
aF57.217850660548294
aFnan
aFnan
aa(lp385
S'510106222'
p386
aS'Ctgf-2A-dgCre'
p387
aF70.30268570024431
aF55.98035540264
aF77.9021274141559
aF78.4225156822306
aF76.1768189638631
aa(lp388
S'468120757'
p389
aS'Scnn1a-Tg3-Cre'
p390
aF76.7483199169849
aF70.11970773927551
aF72.0054333341381
aF73.26654089453069
aFnan
aa(lp391
S'526950199'
p392
aS'Ctgf-2A-dgCre'
p393
aF50.064427513349194
aFnan
aF46.8570893013549
aFnan
aFnan
aa(lp394
S'569730838'
p395
aS'Chrna2-Cre_OE25'
p396
aF45.290287444402
aFnan
aF34.9399046908898
aFnan
aFnan
aa(lp397
S'487358945'
p398
aS'Cux2-CreERT2'
p399
aF68.92215182766151
aF52.985767897017
aF64.6050645971623
aF71.1921061873396
aF74.8655181687641
aa(lp400
S'491030723'
p401
aS'Sst-IRES-Cre'
p402
aF82.5090071230787
aFnan
aF85.52478532033591
aFnan
aFnan
aa(lp403
S'467003163'
p404
aS'Rorb-IRES2-Cre-D'
p405
aF70.58335936692521
aF62.2210105537511
aF87.6284202390628
aF87.3075102950483
aF87.3408196658646
aa(lp406
S'323777372'
p407
aS'Scnn1a-Tg3-Cre'
p408
aF66.7682803470108
aFnan
aF61.565529500683105
aFnan
aFnan
aa(lp409
S'476056333'
p410
aS'Scnn1a-Tg2-Cre'
p411
aF60.9394971506419
aFnan
aF53.7924024200101
aFnan
aFnan
aa(lp412
S'557261437'
p413
aS'Chat-IRES-Cre-neo'
p414
aF76.0190365177331
aFnan
aF83.83614845750441
aFnan
aFnan
aa(lp415
S'467831649'
p416
aS'Scnn1a-Tg2-Cre'
p417
aF63.529144957733095
aFnan
aF63.4587402640438
aFnan
aFnan
aa(lp418
S'565778331'
p419
aS'Ndnf-IRES2-dgCre'
p420
aF77.8890243690168
aF76.16162517139
aF61.3295681008727
aF74.441958526039
aF82.3994805815133
aa(lp421
S'318556138'
p422
aS'Pvalb-IRES-Cre'
p423
aF94.7177005952953
aF93.800116376996
aF96.94776847215721
aF96.9120275460376
aF96.7283873635648
aa(lp424
S'476457450'
p425
aS'Nr5a1-Cre'
p426
aF39.9220542825035
aFnan
aF56.563401009118394
aFnan
aFnan
aa(lp427
S'476053392'
p428
aS'Rorb-IRES2-Cre-D'
p429
aF79.7278844691635
aFnan
aF69.8162578485766
aFnan
aFnan
aa(lp430
S'475057898'
p431
aS'Sst-IRES-Cre'
p432
aF89.03182585768839
aF89.7322403478789
aF82.0358034881536
aF86.6682527767062
aF85.9415986969851
aa(lp433
S'502887600'
p434
aS'Rorb-IRES2-Cre-D'
p435
aF64.5109547125149
aF59.6727835859167
aF55.5699828332212
aF55.890611468947206
aF57.6571110489719
aa(lp436
S'485912047'
p437
aS'Cux2-CreERT2'
p438
aF68.7120043608349
aFnan
aF78.3661997743522
aFnan
aFnan
aa(lp439
S'480268803'
p440
aS'Rorb-IRES2-Cre-D'
p441
aF63.4710570218431
aF68.9954183634096
aF62.020257710861905
aF69.2130727736535
aF70.9150026755318
aa(lp442
S'486893033'
p443
aS'Scnn1a-Tg3-Cre'
p444
aF60.0823868064465
aF64.5791074829183
aF53.6978827345294
aF71.7214906288589
aF59.416090577249
aa(lp445
S'513593674'
p446
aS'Cux2-CreERT2'
p447
aF77.9809413220675
aF74.4573222952225
aF77.66536562335929
aF83.04593982013449
aF83.9618310045612
aa(lp448
S'322761772'
p449
aS'Rorb-IRES2-Cre-D'
p450
aF59.8065898148924
aFnan
aF72.6505130574454
aFnan
aFnan
aa(lp451
S'475622793'
p452
aS'Htr3a-Cre_NO152'
p453
aF63.2904197743283
aF56.461490075543196
aF91.9828268834377
aF91.90307816608549
aF91.8344767021094
aa(lp454
S'515056927'
p455
aS'Scnn1a-Tg3-Cre'
p456
aF56.6700969425729
aFnan
aF67.832479950881
aFnan
aFnan
aa(lp457
S'521938313'
p458
aS'Cux2-CreERT2'
p459
aF71.4191698687395
aFnan
aF76.3430217087982
aFnan
aFnan
aa(lp460
S'480087928'
p461
aS'Rorb-IRES2-Cre-D'
p462
aF65.7500761768645
aF67.66690839477721
aF49.0477163230684
aF46.9230044699638
aF46.159156588732195
aa(lp463
S'504635521'
p464
aS'Ctgf-2A-dgCre'
p465
aF54.305308224359706
aFnan
aF35.6396927962591
aFnan
aFnan
aa(lp466
S'521399472'
p467
aS'Cux2-CreERT2'
p468
aF62.7396584889096
aFnan
aF42.977956975385304
aFnan
aFnan
aa(lp469
S'480647923'
p470
aS'Scnn1a-Tg2-Cre'
p471
aF35.7586629381557
aF48.0723605601854
aF24.2615255143344
aF34.8345719852228
aF34.7882770364128
aa(lp472
S'490259892'
p473
aS'Ntsr1-Cre_GN220'
p474
aF79.5131405550384
aFnan
aF56.89192241923819
aFnan
aFnan
aa(lp475
S'486264574'
p476
aS'Cux2-CreERT2'
p477
aF70.99933656172381
aFnan
aF69.4907571935691
aFnan
aFnan
aa(lp478
S'486352114'
p479
aS'Sst-IRES-Cre'
p480
aF85.2548504258104
aF85.5210728261536
aF93.2426856500529
aF94.4259045778824
aF94.4539178290128
aa(lp481
S'526943222'
p482
aS'Ndnf-IRES2-dgCre'
p483
aF79.4371414998249
aFnan
aF81.7225629033746
aFnan
aFnan
aa(lp484
S'575774870'
p485
aS'Chat-IRES-Cre-neo'
p486
aF59.8149915748565
aFnan
aF71.99177954920279
aFnan
aFnan
aa(lp487
S'386970660'
p488
aS'Nr5a1-Cre'
p489
aF51.7950826501032
aFnan
aF63.925649045475794
aFnan
aFnan
aa(lp490
S'323452245'
p491
aS'Sst-IRES-Cre'
p492
aF67.0181136287037
aFnan
aF76.5182223783407
aFnan
aFnan
aa(lp493
S'513832252'
p494
aS'Scnn1a-Tg3-Cre'
p495
aF54.6647261932252
aF69.910398130089
aF52.3027634377531
aF40.59149017416
aF57.5689527341789
aa(lp496
S'328015342'
p497
aS'Sst-IRES-Cre'
p498
aF69.7374219356459
aF69.36250673044661
aF71.8349754971862
aF76.5161588299453
aF77.1040009582354
aa(lp499
S'313861677'
p500
aS'Rorb-IRES2-Cre-D'
p501
aF67.2367597280085
aF68.75795658603721
aF43.176737254292405
aF56.204288364919094
aF54.3629947298748
aa(lp502
S'526531616'
p503
aS'Ndnf-IRES2-dgCre'
p504
aF84.5670202054727
aFnan
aF87.2558151949271
aFnan
aFnan
aa(lp505
S'476266853'
p506
aS'Scnn1a-Tg3-Cre'
p507
aF70.6232413935987
aFnan
aF80.6758572784535
aFnan
aFnan
aa(lp508
S'479179020'
p509
aS'Rorb-IRES2-Cre-D'
p510
aF67.9772067267852
aF70.6467740730033
aF75.82712157777371
aF78.7130211641686
aF77.1876112798758
aa(lp511
S'473593847'
p512
aS'Sst-IRES-Cre'
p513
aF80.4052241769743
aF73.5002152691815
aF83.15701124980819
aF77.8629056119222
aF79.0149488210672
aa(lp514
S'566563603'
p515
aS'Nkx2-1-CreERT2'
p516
aF59.064688465759396
aF60.3592265793941
aF57.751963967709095
aF66.474104972305
aF66.8589178518356
aa(lp517
S'491026389'
p518
aS'Sst-IRES-Cre'
p519
aF78.1644113886136
aFnan
aF78.3113869075372
aFnan
aFnan
aa(lp520
S'563535101'
p521
aS'Chat-IRES-Cre-neo'
p522
aF50.1053823857933
aFnan
aF58.6135540445231
aFnan
aFnan
aa(lp523
S'567354967'
p524
aS'Chrna2-Cre_OE25'
p525
aF51.4374596065673
aF64.67772118269211
aF58.7231291625364
aF68.90595797513541
aF72.0882837329322
aa(lp526
S'476686112'
p527
aS'Sst-IRES-Cre'
p528
aF75.5633395202927
aF75.3722673615358
aF73.0147814867633
aF68.3921565717005
aF75.9529312349704
aa(lp529
S'466632464'
p530
aS'Ntsr1-Cre_GN220'
p531
aF64.9862530842736
aFnan
aF84.4623478941052
aFnan
aFnan
aa(lp532
S'504647603'
p533
aS'Rorb-IRES2-Cre-D'
p534
aF69.7393155419487
aFnan
aF66.6734793334123
aFnan
aFnan
aa(lp535
S'475751758'
p536
aS'Scnn1a-Tg2-Cre'
p537
aF62.095241171149596
aFnan
aF46.6514123030495
aFnan
aFnan
aa(lp538
S'314529406'
p539
aS'Rorb-IRES2-Cre-D'
p540
aF64.0285121953618
aFnan
aF63.3358850663031
aFnan
aFnan
aa(lp541
S'477490421'
p542
aS'Pvalb-IRES-Cre'
p543
aF97.6137929779475
aF95.7830281473599
aF98.3005736759717
aF98.6816570411528
aF98.5484171003716
aa(lp544
S'475619045'
p545
aS'Htr3a-Cre_NO152'
p546
aF50.159825044527
aF53.5808594765018
aF56.989839939297504
aF63.000219046759995
aF70.7743932416784
aa(lp547
S'475848827'
p548
aS'Rorb-IRES2-Cre-D'
p549
aF71.21952770033269
aFnan
aF55.4437646563565
aFnan
aFnan
aa(lp550
S'475585413'
p551
aS'Htr3a-Cre_NO152'
p552
aF70.8195081803798
aF50.7921248210788
aF89.6097360123108
aF89.1733030746621
aF90.2670843429477
aa(lp553
S'581138223'
p554
aS'Nkx2-1-CreERT2'
p555
aF70.4310712405375
aF68.4020240549061
aF67.6857493690796
aF73.350295156256
aF73.15513930875561
aa(lp556
S'553219924'
p557
aS'Chat-IRES-Cre-neo'
p558
aF74.69288206354871
aFnan
aF83.84893805622579
aFnan
aFnan
aa(lp559
S'471819401'
p560
aS'Ntsr1-Cre_GN220'
p561
aF77.0876260096672
aF65.9644929555254
aF80.1295547812745
aF84.36818998854389
aF87.19421416412439
aa(lp562
S'505476170'
p563
aS'Cux2-CreERT2'
p564
aF74.5556371115043
aFnan
aF64.500122049829
aFnan
aFnan
aa(lp565
S'485578197'
p566
aS'Rbp4-Cre_KL100'
p567
aF67.72842507174231
aF59.3515089304775
aF71.29779821230659
aF77.7865024633393
aF76.1067691544874
aa(lp568
S'478716304'
p569
aS'Sst-IRES-Cre'
p570
aF75.4399993499483
aFnan
aF69.9849024741365
aFnan
aFnan
aa(lp571
S'330080937'
p572
aS'Pvalb-IRES-Cre'
p573
aF90.0588474811841
aFnan
aF96.2733240041634
aFnan
aFnan
aa(lp574
S'487306716'
p575
aS'Pvalb-IRES-Cre'
p576
aF32.2571081230112
aF33.0954898700323
aF33.9327509867391
aF30.542450723945002
aF31.1818714440859
aa(lp577
S'485570372'
p578
aS'Nr5a1-Cre'
p579
aF63.985081208408104
aFnan
aF61.1260066680417
aFnan
aFnan
aa(lp580
S'486176465'
p581
aS'Rbp4-Cre_KL100'
p582
aF60.9983344755596
aFnan
aF43.7397224719491
aFnan
aFnan
aa(lp583
S'490485142'
p584
aS'Ntsr1-Cre_GN220'
p585
aF66.9789519169905
aFnan
aF85.3918720519415
aFnan
aFnan
aa(lp586
S'326734770'
p587
aS'Htr3a-Cre_NO152'
p588
aF70.85963359462531
aFnan
aF83.0175410782702
aFnan
aFnan
aa(lp589
S'476099282'
p590
aS'Sst-IRES-Cre'
p591
aF74.6309441628539
aFnan
aF83.6228193535525
aFnan
aFnan
aa(lp592
S'475894121'
p593
aS'Pvalb-IRES-Cre'
p594
aF93.6870206975598
aF83.7890572115211
aF94.47642075115
aF95.6836600302295
aF95.6697652576769
aa(lp595
S'324053519'
p596
aS'Rorb-IRES2-Cre-D'
p597
aF54.5805961497935
aF45.7365438625017
aF53.4135230602354
aF56.2507614493946
aF57.2398134423837
aa(lp598
S'488708322'
p599
aS'Pvalb-IRES-Cre'
p600
aF85.2590517080241
aFnan
aF90.31829756375001
aFnan
aFnan
aa(lp601
S'478947222'
p602
aS'Pvalb-IRES-Cre'
p603
aF-1.59980275912199
aFnan
aF-1.96695573271643
aFnan
aFnan
aa(lp604
S'561517025'
p605
aS'Nkx2-1-CreERT2'
p606
aF97.4844298053902
aFnan
aF95.1932595335981
aFnan
aFnan
aa(lp607
S'480351780'
p608
aS'Rorb-IRES2-Cre-D'
p609
aF47.0080165016039
aF58.5285211886889
aF52.139949088901204
aF51.3174569120562
aF52.5316189447367
aa(lp610
S'329557305'
p611
aS'Rorb-IRES2-Cre-D'
p612
aF69.48026135813599
aFnan
aF72.1676656574107
aFnan
aFnan
aa(lp613
S'560924223'
p614
aS'Chat-IRES-Cre-neo'
p615
aF44.9181071368309
aFnan
aF44.3233270731069
aFnan
aFnan
aa(lp616
S'502269786'
p617
aS'Nr5a1-Cre'
p618
aF72.9021117597097
aFnan
aF78.70234338401781
aFnan
aFnan
aa(lp619
S'324025297'
p620
aS'Rorb-IRES2-Cre-D'
p621
aF45.5706450615141
aF57.8899293414614
aF55.664833035914896
aF52.2441873100552
aF52.2501106775842
aa(lp622
S'514824979'
p623
aS'Htr3a-Cre_NO152'
p624
aF75.11345052674831
aF70.3438552239613
aF75.0989539089294
aF78.4147184063239
aF77.8589344927914
aa(lp625
S'478793814'
p626
aS'Pvalb-IRES-Cre'
p627
aF87.6142488813092
aFnan
aF90.7489641426623
aFnan
aFnan
aa(lp628
S'515249852'
p629
aS'Rbp4-Cre_KL100'
p630
aF65.2451046285658
aFnan
aF56.9167605756074
aFnan
aFnan
aa(lp631
S'485880739'
p632
aS'Rbp4-Cre_KL100'
p633
aF66.3878546139766
aF58.3704562182994
aF54.382587485178604
aF69.96381625324149
aF62.9003039076527
aa(lp634
S'523478821'
p635
aS'Vip-IRES-Cre'
p636
aF59.2410328512591
aFnan
aF64.3639194505483
aFnan
aFnan
aa(lp637
S'502193385'
p638
aS'Nr5a1-Cre'
p639
aF73.2978129101468
aF71.4260796147958
aF55.1493476637528
aF68.8550904528067
aF70.8233744270756
aa(lp640
S'515059388'
p641
aS'Scnn1a-Tg3-Cre'
p642
aF50.140179179094204
aF57.234188844494604
aF45.502918733395994
aF55.1015236726627
aF62.1662527190129
aa(lp643
S'486175203'
p644
aS'Cux2-CreERT2'
p645
aF73.58366104124289
aFnan
aF64.2584582735912
aFnan
aFnan
aa(lp646
S'522147522'
p647
aS'Ntsr1-Cre_GN220'
p648
aF80.3238599967898
aFnan
aF80.1253501901935
aFnan
aFnan
aa(lp649
S'486198953'
p650
aS'Cux2-CreERT2'
p651
aF69.2073752093984
aF62.350136393598596
aF74.8348586224269
aF76.4884852058918
aF76.4899924240678
aa(lp652
S'507121819'
p653
aS'Rorb-IRES2-Cre-D'
p654
aF62.0340220843411
aFnan
aF33.1639201455422
aFnan
aFnan
aa(lp655
S'532355382'
p656
aS'Ctgf-2A-dgCre'
p657
aF56.200934786217005
aF57.93335708474579
aF52.291450844803
aF52.4384027085403
aF63.631567162272894
aa(lp658
S'488359338'
p659
aS'Rbp4-Cre_KL100'
p660
aF75.5004561322621
aFnan
aF86.3340740157108
aFnan
aFnan
aa(lp661
S'464212183'
p662
aS'Sst-IRES-Cre'
p663
aF80.202805121675
aF72.6597666216641
aF87.3057841536123
aF87.9145123810075
aF87.414332769094
aa(lp664
S'502808270'
p665
aS'Cux2-CreERT2'
p666
aF61.7646527979528
aF58.686739139272404
aF36.3268186621589
aF56.815575883902106
aF60.7604384238064
aa(lp667
S'480718588'
p668
aS'Rbp4-Cre_KL100'
p669
aF47.2390402367688
aFnan
aF49.3205873492605
aFnan
aFnan
aa(lp670
S'486756093'
p671
aS'Cux2-CreERT2'
p672
aF82.14969809924469
aFnan
aF81.45800281592051
aFnan
aFnan
aa(lp673
S'476263004'
p674
aS'Scnn1a-Tg3-Cre'
p675
aF70.9869577980224
aF60.9000192512284
aF88.9200838045628
aF84.8720383096665
aF87.8761100882781
aa(lp676
S'479220013'
p677
aS'Htr3a-Cre_NO152'
p678
aF70.0617351603107
aFnan
aF89.70811371770941
aFnan
aFnan
aa(lp679
S'526801742'
p680
aS'Ndnf-IRES2-dgCre'
p681
aF73.28746595892869
aFnan
aF77.873515455148
aFnan
aFnan
aa(lp682
S'471087830'
p683
aS'Pvalb-IRES-Cre'
p684
aF96.5979358349771
aF93.8262591226588
aF97.653744763795
aF97.199538711075
aF96.94881043914489
aa(lp685
S'508275137'
p686
aS'Ntsr1-Cre_GN220'
p687
aF68.9979229992561
aFnan
aF66.3118755067455
aFnan
aFnan
aa(lp688
S'478110866'
p689
aS'Htr3a-Cre_NO152'
p690
aF78.2357315226131
aFnan
aF78.540768782438
aFnan
aFnan
aa(lp691
S'486510127'
p692
aS'Nr5a1-Cre'
p693
aF78.16757740497759
aFnan
aF88.4536332762916
aFnan
aFnan
aa(lp694
S'539742766'
p695
aS'Ntsr1-Cre_GN220'
p696
aF61.0856618801305
aFnan
aF74.0463172923224
aFnan
aFnan
aa(lp697
S'479218494'
p698
aS'Htr3a-Cre_NO152'
p699
aF77.8449794741389
aFnan
aF90.8599529165148
aFnan
aFnan
aa(lp700
S'554807988'
p701
aS'Nkx2-1-CreERT2'
p702
aF95.470096439467
aFnan
aF93.4954409403378
aFnan
aFnan
aa(lp703
S'522108467'
p704
aS'Htr3a-Cre_NO152'
p705
aF61.9037820816165
aFnan
aF61.004564258454195
aFnan
aFnan
aa(lp706
S'322297406'
p707
aS'Ntsr1-Cre_GN220'
p708
aF63.121809096593395
aF54.337293228357495
aF64.5817470957295
aF68.19114527936459
aF64.9382355239959
aa(lp709
S'521409057'
p710
aS'Cux2-CreERT2'
p711
aF70.4000044950913
aFnan
aF59.3504835106099
aFnan
aFnan
aa(lp712
S'561519381'
p713
aS'Nkx2-1-CreERT2'
p714
aF76.3149996720463
aF60.65128472405979
aF77.77861682521579
aF83.2670013407716
aF83.0469972394763
aa(lp715
S'482773968'
p716
aS'Htr3a-Cre_NO152'
p717
aF63.0596712994802
aFnan
aF79.4050380016099
aFnan
aFnan
aa(lp718
S'321893798'
p719
aS'Nr5a1-Cre'
p720
aF50.3181277847603
aF62.6705442357511
aF45.7898400222912
aF30.4376953985806
aF42.3112667683492
aa(lp721
S'475580568'
p722
aS'Sst-IRES-Cre'
p723
aF93.7428933645562
aF92.9645997322169
aF94.17375203273491
aF95.43688200367009
aF94.32732932886489
aa(lp724
S'488448839'
p725
aS'Ntsr1-Cre_GN220'
p726
aF79.75124502120829
aFnan
aF81.2035603808435
aFnan
aFnan
aa(lp727
S'488695444'
p728
aS'Rorb-IRES2-Cre-D'
p729
aF67.9966913149416
aFnan
aF68.2075511473654
aFnan
aFnan
aa(lp730
S'327962063'
p731
aS'Htr3a-Cre_NO152'
p732
aF78.66007942463669
aFnan
aF75.6944268909301
aFnan
aFnan
aa(lp733
S'517977609'
p734
aS'Nr5a1-Cre'
p735
aF64.9146024372062
aFnan
aF70.1100470824467
aFnan
aFnan
aa(lp736
S'567320213'
p737
aS'Chrna2-Cre_OE25'
p738
aF76.0535084254639
aFnan
aF78.85658631333389
aFnan
aFnan
aa(lp739
S'486146717'
p740
aS'Cux2-CreERT2'
p741
aF66.97432678951249
aF67.2669089386417
aF70.6814924645266
aF75.703526077197
aF74.7840061499884
aa(lp742
S'320639930'
p743
aS'Rorb-IRES2-Cre-D'
p744
aF70.779341355205
aF67.3501764283986
aF65.6359516667764
aF71.8094032934643
aF73.2117998383992
aa(lp745
S'501736631'
p746
aS'Vip-IRES-Cre'
p747
aF80.1829649671858
aFnan
aF94.940962973591
aFnan
aFnan
aa(lp748
S'476751360'
p749
aS'Sst-IRES-Cre'
p750
aF2.4407384976062803
aFnan
aF5.21161822221106
aFnan
aFnan
aa(lp751
S'490264167'
p752
aS'Ntsr1-Cre_GN220'
p753
aF67.53423005476989
aFnan
aF76.8847294201572
aFnan
aFnan
aa(lp754
S'489930727'
p755
aS'Htr3a-Cre_NO152'
p756
aF83.2397205346919
aFnan
aF94.05013455856161
aFnan
aFnan
aa(lp757
S'328549885'
p758
aS'Sst-IRES-Cre'
p759
aF62.4733357188053
aFnan
aF61.005914136418006
aFnan
aFnan
aa(lp760
S'480705931'
p761
aS'Rorb-IRES2-Cre-D'
p762
aF63.424900569462395
aFnan
aF67.4472655619345
aFnan
aFnan
aa(lp763
S'515511110'
p764
aS'Rbp4-Cre_KL100'
p765
aF57.8750039146385
aF60.242174780720006
aF57.6496205606871
aF65.72948372719371
aF66.9468777901252
aa(lp766
S'488501487'
p767
aS'Pvalb-IRES-Cre'
p768
aF55.3765080442004
aFnan
aF63.5744799142829
aFnan
aFnan
aa(lp769
S'484515166'
p770
aS'Cux2-CreERT2'
p771
aF74.13225132210009
aF61.9543486866978
aF88.5247910003851
aF87.3361008742597
aF87.3106836913641
aa(lp772
S'464198958'
p773
aS'Sst-IRES-Cre'
p774
aF53.2264945288387
aFnan
aF66.5944634719945
aFnan
aFnan
aa(lp775
S'569810649'
p776
aS'Vip-IRES-Cre'
p777
aF64.28675665204871
aF67.6707690413628
aF66.2338914145431
aF65.9051197849089
aF64.7084677286548
aa(lp778
S'487667205'
p779
aS'Pvalb-IRES-Cre'
p780
aF95.6182921458729
aFnan
aF97.3413750410277
aFnan
aFnan
aa(lp781
S'524693113'
p782
aS'Vip-IRES-Cre'
p783
aF61.053972600482695
aF67.2470385508974
aF70.0238951010938
aF81.4879877964081
aF82.6575235358474
aa(lp784
S'490626827'
p785
aS'Rorb-IRES2-Cre-D'
p786
aF59.1337523455526
aFnan
aF71.5790575862436
aFnan
aFnan
aa(lp787
S'502260112'
p788
aS'Nr5a1-Cre'
p789
aF68.7353369351618
aFnan
aF76.4794987129403
aFnan
aFnan
aa(lp790
S'485608017'
p791
aS'Rbp4-Cre_KL100'
p792
aF73.3185920793432
aF69.3295078228022
aF80.414227959014
aF81.25503906706389
aF83.8022512940441
aa(lp793
S'324065524'
p794
aS'Rorb-IRES2-Cre-D'
p795
aF77.5806587776311
aF73.89600444759769
aF70.87662983777079
aF76.0984501463312
aF82.9233156859017
aa(lp796
S'483101699'
p797
aS'Cux2-CreERT2'
p798
aF59.818562885119
aF55.6146426024861
aF66.1178060066722
aF70.53712792724221
aF70.4816686338888
aa(lp799
S'490718897'
p800
aS'Ntsr1-Cre_GN220'
p801
aF70.0548089423767
aF48.476650351026
aF85.4919318955028
aF83.3828442643386
aF86.5153087291206
aa(lp802
S'501956013'
p803
aS'Ctgf-2A-dgCre'
p804
aF35.120850698642904
aFnan
aF28.486040440453802
aFnan
aFnan
aa(lp805
S'475517090'
p806
aS'Sst-IRES-Cre'
p807
aF76.8807836745805
aF75.5089559169911
aF65.4348584654024
aF66.3199642469546
aF65.9753732341407
aa(lp808
S'577369606'
p809
aS'Chat-IRES-Cre-neo'
p810
aF71.1172355598855
aF71.24460573478059
aF75.0796415643207
aF73.8249879277582
aF82.361166437615
aa(lp811
S'501023852'
p812
aS'Scnn1a-Tg3-Cre'
p813
aF83.44052815830109
aFnan
aF80.4979117861908
aFnan
aFnan
aa(lp814
S'527579814'
p815
aS'Ndnf-IRES2-dgCre'
p816
aF85.23769138274069
aF75.9733811085176
aF89.7588943247262
aF90.452471245355
aF91.4053088772345
aa(lp817
S'470098860'
p818
aS'Scnn1a-Tg3-Cre'
p819
aF69.70802959029609
aFnan
aF53.774990235921805
aFnan
aFnan
aa(lp820
S'567399060'
p821
aS'Chrna2-Cre_OE25'
p822
aF47.5552687201478
aF60.744128151751795
aF59.07585255936419
aF63.196598333120505
aF68.545395885677
aa(lp823
S'510114363'
p824
aS'Ctgf-2A-dgCre'
p825
aF73.3373892415965
aFnan
aF79.7780744505816
aFnan
aFnan
aa(lp826
S'327706437'
p827
aS'Htr3a-Cre_NO152'
p828
aF79.2689669465286
aFnan
aF88.82690348550089
aFnan
aFnan
aa(lp829
S'489887491'
p830
aS'Cux2-CreERT2'
p831
aF70.6117074403836
aFnan
aF74.57077721763041
aFnan
aFnan
aa(lp832
S'508887004'
p833
aS'Rbp4-Cre_KL100'
p834
aF75.1579429995393
aFnan
aF65.7616860115359
aFnan
aFnan
aa(lp835
S'484737013'
p836
aS'Scnn1a-Tg2-Cre'
p837
aF66.5252748549365
aF71.53040690748989
aF63.72593783653841
aF64.4091295379628
aF71.03813037986761
aa(lp838
S'336676216'
p839
aS'Pvalb-IRES-Cre'
p840
aF54.08275735348111
aFnan
aF56.7407026137093
aFnan
aFnan
aa(lp841
S'485466109'
p842
aS'Sst-IRES-Cre'
p843
aF87.2443121898975
aF87.8736648551434
aF92.4729056620708
aF94.0316346691455
aF94.0405715763963
aa(lp844
S'516906055'
p845
aS'Cux2-CreERT2'
p846
aF96.6168597656322
aFnan
aF95.05970427415261
aFnan
aFnan
aa(lp847
S'484738748'
p848
aS'Scnn1a-Tg2-Cre'
p849
aF67.2793534660819
aFnan
aF35.752441854159
aFnan
aFnan
aa(lp850
S'486132712'
p851
aS'Rbp4-Cre_KL100'
p852
aF87.27299888870999
aFnan
aF77.5842675411003
aFnan
aFnan
aa(lp853
S'322246422'
p854
aS'Sst-IRES-Cre'
p855
aF71.823745901199
aF74.1819318581935
aF69.3872147312639
aF72.4095396455242
aF70.1140279633891
aa(lp856
S'505202906'
p857
aS'Cux2-CreERT2'
p858
aF71.17394233194871
aFnan
aF73.815412503851
aFnan
aFnan
aa(lp859
S'508980706'
p860
aS'Ntsr1-Cre_GN220'
p861
aF63.989425577814494
aFnan
aF79.8367873155008
aFnan
aFnan
aa(lp862
S'313862134'
p863
aS'Sst-IRES-Cre'
p864
aF94.7474654483392
aF90.2512018848051
aF95.81862765821501
aF96.5960954761689
aF96.4164603753062
aa(lp865
S'517647182'
p866
aS'Scnn1a-Tg2-Cre'
p867
aF77.2269645031389
aFnan
aF77.5717089564003
aFnan
aFnan
aa(lp868
S'486108147'
p869
aS'Cux2-CreERT2'
p870
aF69.3649727203897
aF69.0414224953216
aF60.371147388020695
aF69.2606705414468
aF68.9680001679338
aa(lp871
S'325480372'
p872
aS'Scnn1a-Tg2-Cre'
p873
aF67.14178993652939
aFnan
aF62.3715701884073
aFnan
aFnan
aa(lp874
S'321923492'
p875
aS'Nr5a1-Cre'
p876
aF67.70672020066971
aFnan
aF54.6858292257711
aFnan
aFnan
aa(lp877
S'397354239'
p878
aS'Nr5a1-Cre'
p879
aF67.669685115805
aFnan
aF77.3665645749286
aFnan
aFnan
aa(lp880
S'490626718'
p881
aS'Rorb-IRES2-Cre-D'
p882
aF78.17958592665491
aFnan
aF94.4237983422562
aFnan
aFnan
aa(lp883
S'478949560'
p884
aS'Pvalb-IRES-Cre'
p885
aF92.3180809217247
aF92.85379526683421
aF92.944059123499
aF92.695726232684
aF92.3677919312291
aa(lp886
S'469801569'
p887
aS'Pvalb-IRES-Cre'
p888
aF92.4459619595849
aFnan
aF95.3573720340549
aFnan
aFnan
aa(lp889
S'325853048'
p890
aS'Rbp4-Cre_KL100'
p891
aF56.693675482629004
aF64.7942344250163
aF43.084934177827
aF46.1862683820717
aF51.816787874468
aa(lp892
S'490790207'
p893
aS'Rbp4-Cre_KL100'
p894
aF77.9276038868149
aF72.611706118759
aF70.0630899465531
aF79.7838009995754
aF84.1346864165974
aa(lp895
S'486753754'
p896
aS'Cux2-CreERT2'
p897
aF73.012514799172
aFnan
aF83.6627903653787
aFnan
aFnan
aa(lp898
S'508566646'
p899
aS'Rbp4-Cre_KL100'
p900
aF67.8673505558041
aFnan
aF67.5601028346842
aFnan
aFnan
aa(lp901
S'488676149'
p902
aS'Ntsr1-Cre_GN220'
p903
aF76.2216869881102
aF19.783843742499098
aF81.2055878848892
aF88.1495880460664
aF89.2297573595525
aa(lp904
S'489885173'
p905
aS'Nr5a1-Cre'
p906
aF64.4638747243683
aFnan
aF71.7490463548736
aFnan
aFnan
aa(lp907
S'566466395'
p908
aS'Chrna2-Cre_OE25'
p909
aF75.3541118262336
aFnan
aF63.48120388571859
aFnan
aFnan
aa(lp910
S'502665074'
p911
aS'Ctgf-2A-dgCre'
p912
aF70.88605187067351
aFnan
aF64.9053778789856
aFnan
aFnan
aa(lp913
S'485455285'
p914
aS'Sst-IRES-Cre'
p915
aF73.0889381313773
aFnan
aF85.4891675846946
aFnan
aFnan
aa(lp916
S'581153862'
p917
aS'Nkx2-1-CreERT2'
p918
aF64.78825760683449
aFnan
aF72.1616520560033
aFnan
aFnan
aa(lp919
S'475622680'
p920
aS'Htr3a-Cre_NO152'
p921
aF80.250876315319
aF73.8653789372035
aF83.6278762891814
aF88.9013826636005
aF91.1534986864433
aa(lp922
S'562381417'
p923
aS'Chrna2-Cre_OE25'
p924
aF90.1343855887066
aFnan
aF81.3457621402421
aFnan
aFnan
aa(lp925
S'480171386'
p926
aS'Rorb-IRES2-Cre-D'
p927
aF69.4786785010905
aF72.2972995976181
aF57.5335340116756
aF51.5578408939399
aF59.7399566564229
aa(lp928
S'507918877'
p929
aS'Ntsr1-Cre_GN220'
p930
aF58.214155030347705
aFnan
aF64.5235192254338
aFnan
aFnan
aa(lp931
S'479219923'
p932
aS'Htr3a-Cre_NO152'
p933
aF58.9646150561144
aFnan
aF55.6319838829475
aFnan
aFnan
aa(lp934
S'479225052'
p935
aS'Rorb-IRES2-Cre-D'
p936
aF60.6739995071081
aFnan
aF52.7525124043281
aFnan
aFnan
aa(lp937
S'516916566'
p938
aS'Cux2-CreERT2'
p939
aF64.6157041245668
aF69.2387607372752
aF45.2021146917069
aF49.9295913945059
aF53.1177992825232
aa(lp940
S'500859045'
p941
aS'Rorb-IRES2-Cre-D'
p942
aF81.1772930779672
aFnan
aF82.95066263102771
aFnan
aFnan
aa(lp943
S'569623233'
p944
aS'Ndnf-IRES2-dgCre'
p945
aF93.7493395225384
aF76.87308378185939
aF92.60252436186191
aF95.19586126881609
aF95.29903719741431
aa(lp946
S'485287282'
p947
aS'Sst-IRES-Cre'
p948
aF62.83368732258769
aFnan
aF60.767155758325096
aFnan
aFnan
aa(lp949
S'490149337'
p950
aS'Htr3a-Cre_NO152'
p951
aF47.1100939049917
aF45.9835207776026
aF34.7958993356427
aF38.3617002268177
aF40.9538154288024
aa(lp952
S'485835016'
p953
aS'Rbp4-Cre_KL100'
p954
aF63.6600504726765
aF54.753407991376804
aF64.5164405499628
aF68.6231392169747
aF71.0283660326575
aa(lp955
S'566463606'
p956
aS'Chrna2-Cre_OE25'
p957
aF53.7722913384164
aF65.5729360939286
aF67.5194557919272
aF69.38743258702729
aF72.32087947752271
aa(lp958
S'485468180'
p959
aS'Nr5a1-Cre'
p960
aF82.1802851228942
aF75.0574500082117
aF80.6758034020708
aF79.8702964913048
aF80.3632818882741
aa(lp961
S'473011949'
p962
aS'Sst-IRES-Cre'
p963
aF63.024494455246504
aF62.2444373565252
aF78.0665584537503
aF64.2456727433131
aF65.7586750069045
aa(lp964
S'490259231'
p965
aS'Ntsr1-Cre_GN220'
p966
aF76.4657095376685
aFnan
aF75.86497680769419
aFnan
aFnan
aa(lp967
S'486029942'
p968
aS'Cux2-CreERT2'
p969
aF65.3851102180086
aF68.0860285721081
aF63.8682227906879
aF65.9003493840287
aF72.3402253490098
aa(lp970
S'501566512'
p971
aS'Ntsr1-Cre_GN220'
p972
aF64.6232125941774
aFnan
aF78.850161736831
aFnan
aFnan
aa(lp973
S'488675026'
p974
aS'Ntsr1-Cre_GN220'
p975
aF71.4593109087634
aF58.158891993182706
aF66.1469799450756
aF69.80022854132511
aF71.5071017291329
aa(lp976
S'313860745'
p977
aS'Rorb-IRES2-Cre-D'
p978
aF46.0552329839684
aFnan
aF52.311433286318
aFnan
aFnan
aa(lp979
S'566760952'
p980
aS'Nkx2-1-CreERT2'
p981
aF65.8203494228875
aFnan
aF71.8260205609142
aFnan
aFnan
aa(lp982
S'485610263'
p983
aS'Rbp4-Cre_KL100'
p984
aF53.0118295944891
aFnan
aF50.97312271929481
aFnan
aFnan
aa(lp985
S'517077548'
p986
aS'Ntsr1-Cre_GN220'
p987
aF51.088824767543194
aFnan
aF66.5105688848626
aFnan
aFnan
aa(lp988
S'474652473'
p989
aS'Htr3a-Cre_NO152'
p990
aF68.7184821849017
aFnan
aF87.9107641081998
aFnan
aFnan
aa(lp991
S'341442651'
p992
aS'Pvalb-IRES-Cre'
p993
aF93.4297073518657
aFnan
aF92.1710043417026
aFnan
aFnan
aa(lp994
S'485837504'
p995
aS'Rorb-IRES2-Cre-D'
p996
aF62.02443856834729
aF65.6796781053128
aF54.7923035149266
aF70.63037030187101
aF67.97553062922
aa(lp997
S'530235049'
p998
aS'Ndnf-IRES2-dgCre'
p999
aF81.14758144808731
aF79.7535061135972
aF91.6699531325355
aF90.7552228232503
aF90.73492122294729
aa(lp1000
S'328876201'
p1001
aS'Sst-IRES-Cre'
p1002
aF53.427498451757806
aFnan
aF60.814438255523896
aFnan
aFnan
aa(lp1003
S'478107198'
p1004
aS'Htr3a-Cre_NO152'
p1005
aF58.2371000318304
aF53.8399284551098
aF68.7456050444263
aF75.6278475788109
aF75.5180529055481
aa(lp1006
S'314800921'
p1007
aS'Rorb-IRES2-Cre-D'
p1008
aF67.6829058681391
aF54.9377355698663
aF76.9043211863638
aF76.9773445243762
aF77.9698218061792
aa(lp1009
S'500879695'
p1010
aS'Pvalb-IRES-Cre'
p1011
aF90.5734951211866
aFnan
aF89.3608025985553
aFnan
aFnan
aa(lp1012
S'526939383'
p1013
aS'Ndnf-IRES2-dgCre'
p1014
aF84.5565076642325
aFnan
aF90.5057834024281
aFnan
aFnan
aa(lp1015
S'324466858'
p1016
aS'Sst-IRES-Cre'
p1017
aF74.7384243081205
aF75.2880850674793
aF63.98179211959339
aF63.457647550326
aF71.2971713325973
aa(lp1018
S'504567071'
p1019
aS'Cux2-CreERT2'
p1020
aF56.9965766131278
aF73.741434181951
aF61.6573275201442
aF72.6633442293856
aF73.4864912817329
aa(lp1021
S'486560376'
p1022
aS'Cux2-CreERT2'
p1023
aF67.17565077437389
aFnan
aF72.3722031967547
aFnan
aFnan
aa(lp1024
S'566761793'
p1025
aS'Chrna2-Cre_OE25'
p1026
aF75.04359654063319
aF74.7436749749231
aF71.9948669308931
aF73.3374093584556
aF73.47514115092
aa(lp1027
S'487400838'
p1028
aS'Pvalb-IRES-Cre'
p1029
aF95.49544687414
aFnan
aF95.2569868084588
aFnan
aFnan
aa(lp1030
S'486052980'
p1031
aS'Rbp4-Cre_KL100'
p1032
aF78.1873483548445
aF74.2674505108907
aF61.8614694011725
aF71.8273308078909
aF70.66378260313449
aa(lp1033
S'477880128'
p1034
aS'Htr3a-Cre_NO152'
p1035
aF75.00669082332641
aFnan
aF76.9501001125746
aFnan
aFnan
aa(lp1036
S'327644217'
p1037
aS'Htr3a-Cre_NO152'
p1038
aF70.1273094632533
aFnan
aF80.4693065868868
aFnan
aFnan
aa(lp1039
S'502647640'
p1040
aS'Rorb-IRES2-Cre-D'
p1041
aF80.902444957688
aFnan
aF81.8992269771679
aFnan
aFnan
aa(lp1042
S'490612844'
p1043
aS'Rbp4-Cre_KL100'
p1044
aF68.3016615135267
aF59.692011508445
aF68.2696868801631
aF70.8659216791628
aF71.91437313372721
aa(lp1045
S'476269122'
p1046
aS'Scnn1a-Tg3-Cre'
p1047
aF61.984750987139606
aF63.0953963120758
aF53.9734101930761
aF65.6942156142521
aF62.720887674041
aa(lp1048
S'471129934'
p1049
aS'Rbp4-Cre_KL100'
p1050
aF73.0849159798455
aF67.16680029855159
aF80.9025190012144
aF80.98306406010501
aF79.70979184891401
aa(lp1051
S'313862274'
p1052
aS'Sst-IRES-Cre'
p1053
aF84.5470597662831
aF84.2613871151968
aF83.5033955496667
aF82.0873836376403
aF82.4214153139079
aa(lp1054
S'354190013'
p1055
aS'Scnn1a-Tg2-Cre'
p1056
aF59.042492413610304
aFnan
aF39.7530349265007
aFnan
aFnan
aa(lp1057
S'515524026'
p1058
aS'Rbp4-Cre_KL100'
p1059
aF37.803067264062
aFnan
aF46.0388442137463
aFnan
aFnan
aa(lp1060
S'480122859'
p1061
aS'Rorb-IRES2-Cre-D'
p1062
aF50.560772607734506
aFnan
aF44.6333328486569
aFnan
aFnan
aa(lp1063
S'502245101'
p1064
aS'Nr5a1-Cre'
p1065
aF74.1173770585395
aF78.4976411662483
aF59.2612697647221
aF77.1896667360434
aF78.9394216366817
aa(lp1066
S'501895840'
p1067
aS'Rorb-IRES2-Cre-D'
p1068
aF69.3647433891169
aF66.378353469847
aF44.117394688371
aF51.7488255436113
aF51.655569956126804
aa(lp1069
S'569664731'
p1070
aS'Chrna2-Cre_OE25'
p1071
aF38.5208066814103
aFnan
aF44.1047222135768
aFnan
aFnan
aa(lp1072
S'485574721'
p1073
aS'Rbp4-Cre_KL100'
p1074
aF66.9648860890379
aF60.090295126287494
aF48.707309939869795
aF55.37592560750551
aF62.512032330399705
aa(lp1075
S'580537822'
p1076
aS'Nkx2-1-CreERT2'
p1077
aF78.9974130839608
aF68.982046164436
aF81.076935456072
aF82.4538142515873
aF82.4797631072731
aa(lp1078
S'395785266'
p1079
aS'Scnn1a-Tg3-Cre'
p1080
aF68.3189327267604
aFnan
aF70.12151252559879
aFnan
aFnan
aa(lp1081
S'500964382'
p1082
aS'Scnn1a-Tg3-Cre'
p1083
aF43.784209715892096
aFnan
aF46.0191460478738
aFnan
aFnan
aa(lp1084
S'508883033'
p1085
aS'Rbp4-Cre_KL100'
p1086
aF63.077982847832004
aFnan
aF75.93340435752211
aFnan
aFnan
aa(lp1087
S'524689239'
p1088
aS'Vip-IRES-Cre'
p1089
aF69.6396266438716
aFnan
aF79.4731257894763
aFnan
aFnan
aa(lp1090
S'518750800'
p1091
aS'Chat-IRES-Cre-neo'
p1092
aF92.0555766617584
aF60.764938347268206
aF93.594875271072
aF97.0075375910861
aF97.04928934712001
aa(lp1093
S'485938494'
p1094
aS'Ntsr1-Cre_GN220'
p1095
aF79.6044059740521
aF52.4316454783196
aF89.8359656675424
aF87.9704868046381
aF92.54562541327131
aa(lp1096
S'534524026'
p1097
aS'Ctgf-2A-dgCre'
p1098
aF30.112936746851197
aFnan
aF40.470177021520996
aFnan
aFnan
aa(lp1099
S'320836481'
p1100
aS'Scnn1a-Tg3-Cre'
p1101
aF55.7285399119401
aF66.8154594496299
aF48.663008082756996
aF54.6852817713915
aF50.9638139137457
aa(lp1102
S'504120613'
p1103
aS'Htr3a-Cre_NO152'
p1104
aF75.116607538162
aFnan
aF89.5195844596047
aFnan
aFnan
aa(lp1105
S'567266985'
p1106
aS'Chrna2-Cre_OE25'
p1107
aF64.9330675920915
aF75.1487991372427
aF68.3294154591112
aF69.7445097130567
aF81.0954255272202
aa(lp1108
S'486196663'
p1109
aS'Cux2-CreERT2'
p1110
aF67.1316255883358
aFnan
aF68.1056195387177
aFnan
aFnan
aa(lp1111
S'566559909'
p1112
aS'Nkx2-1-CreERT2'
p1113
aF72.9534683549131
aFnan
aF80.6526178923604
aFnan
aFnan
aa(lp1114
S'530349764'
p1115
aS'Ctgf-2A-dgCre'
p1116
aF57.3556557271546
aFnan
aF47.7191025400229
aFnan
aFnan
aa(lp1117
S'490267468'
p1118
aS'Cux2-CreERT2'
p1119
aF75.8335085975399
aF65.1429612541207
aF77.5591849800371
aF79.903741586308
aF80.2655335155953
aa(lp1120
S'486472847'
p1121
aS'Rorb-IRES2-Cre-D'
p1122
aF71.1215489897154
aF70.7432297192683
aF71.6120226522019
aF72.0817781630569
aF72.5996146256049
aa(lp1123
S'490772223'
p1124
aS'Rbp4-Cre_KL100'
p1125
aF70.161601683098
aFnan
aF77.348852490566
aFnan
aFnan
aa(lp1126
S'395830185'
p1127
aS'Scnn1a-Tg3-Cre'
p1128
aF65.1966857251016
aFnan
aF42.431152066288305
aFnan
aFnan
aa(lp1129
S'488677994'
p1130
aS'Sst-IRES-Cre'
p1131
aF91.8598075840721
aF91.25436380943451
aF96.40052926436759
aF96.0221497479264
aF96.50158964041479
aa(lp1132
S'484744672'
p1133
aS'Pvalb-IRES-Cre'
p1134
aF74.0484146673914
aFnan
aF74.8767322706134
aFnan
aFnan
aa(lp1135
S'501282204'
p1136
aS'Sst-IRES-Cre'
p1137
aF85.6478739447654
aFnan
aF82.8843777723135
aFnan
aFnan
aa(lp1138
S'482521571'
p1139
aS'Htr3a-Cre_NO152'
p1140
aF57.4313524433047
aFnan
aF72.1907310926443
aFnan
aFnan
aa(lp1141
S'329550277'
p1142
aS'Rorb-IRES2-Cre-D'
p1143
aF74.0537616264042
aFnan
aF75.1050938768346
aFnan
aFnan
aa(lp1144
S'479721491'
p1145
aS'Rbp4-Cre_KL100'
p1146
aF72.174357829877
aF69.10127270506909
aF55.9557400678742
aF75.539307832143
aF78.74186674761991
aa(lp1147
S'491038812'
p1148
aS'Pvalb-IRES-Cre'
p1149
aF93.1879349881381
aF93.54186019005691
aF94.23292884339301
aF94.7813169792799
aF94.65203061423479
aa(lp1150
S'556356342'
p1151
aS'Chrna2-Cre_OE25'
p1152
aF41.3236255050708
aFnan
aF43.020066284464896
aFnan
aFnan
aa(lp1153
S'579611597'
p1154
aS'Ndnf-IRES2-dgCre'
p1155
aF83.4419166719239
aF75.57308781267041
aF87.4944454879536
aF88.4069847559941
aF88.4892569044322
aa(lp1156
S'535728342'
p1157
aS'Vip-IRES-Cre'
p1158
aF85.0373419309188
aFnan
aF80.3567153411781
aFnan
aFnan
aa(lp1159
S'500964358'
p1160
aS'Scnn1a-Tg3-Cre'
p1161
aF63.1687283906448
aFnan
aF73.9306396272682
aFnan
aFnan
aa(lp1162
S'476823462'
p1163
aS'Rorb-IRES2-Cre-D'
p1164
aF70.2303260607145
aFnan
aF50.5132917880558
aFnan
aFnan
aa(lp1165
S'487638658'
p1166
aS'Pvalb-IRES-Cre'
p1167
aF32.545841099137
aFnan
aF35.0897172473169
aFnan
aFnan
aa(lp1168
S'519751607'
p1169
aS'Htr3a-Cre_NO152'
p1170
aF56.7339567401762
aFnan
aF44.454880674480904
aFnan
aFnan
aa(lp1171
S'473020156'
p1172
aS'Rorb-IRES2-Cre-D'
p1173
aF63.9458882989526
aF70.8039958216898
aF70.1788785706704
aF71.75761704954449
aF72.6870129686238
aa(lp1174
S'566991946'
p1175
aS'Chrna2-Cre_OE25'
p1176
aF54.863505184971295
aFnan
aF47.158788488271206
aFnan
aFnan
aa(lp1177
S'314822529'
p1178
aS'Rorb-IRES2-Cre-D'
p1179
aF74.2650093030387
aF62.9978500597989
aF84.8798951910173
aF87.1046395019947
aF87.261539785714
aa(lp1180
S'513531471'
p1181
aS'Cux2-CreERT2'
p1182
aF65.03399809632529
aF80.115585736675
aF85.7731108511273
aF85.2443712706351
aF83.39401361079281
aa(lp1183
S'483057325'
p1184
aS'Cux2-CreERT2'
p1185
aF74.71287356638851
aFnan
aF85.7536474200199
aFnan
aFnan
aa(lp1186
S'484509440'
p1187
aS'Cux2-CreERT2'
p1188
aF72.3915382655296
aFnan
aF72.6284492656119
aFnan
aFnan
aa(lp1189
S'473909767'
p1190
aS'Htr3a-Cre_NO152'
p1191
aF62.5016590201723
aF58.9337600490321
aF76.17363420822389
aF73.6106077961128
aF78.1367973897985
aa(lp1192
S'562385794'
p1193
aS'Chrna2-Cre_OE25'
p1194
aF62.2658350099458
aFnan
aF55.361290384464304
aFnan
aFnan
aa(lp1195
S'485884503'
p1196
aS'Rorb-IRES2-Cre-D'
p1197
aF72.6828697810191
aF69.9953983428546
aF67.5912431884086
aF71.1592184659737
aF71.7331135384231
aa(lp1198
S'487594856'
p1199
aS'Pvalb-IRES-Cre'
p1200
aF94.4402186566887
aFnan
aF94.247680752285
aFnan
aFnan
aa(lp1201
S'469803003'
p1202
aS'Scnn1a-Tg3-Cre'
p1203
aF70.7428321969678
aFnan
aF50.547234494533996
aFnan
aFnan
aa(lp1204
S'465924786'
p1205
aS'Nr5a1-Cre'
p1206
aF69.40770580008589
aF65.2020508909894
aF75.8572033334824
aF75.7792852970087
aF75.89955441681751
aa(lp1207
S'327679841'
p1208
aS'Htr3a-Cre_NO152'
p1209
aF72.1701791277669
aF39.560934493584796
aF92.5906996418461
aF93.6011867781618
aF93.5698353566213
aa(lp1210
S'476093220'
p1211
aS'Sst-IRES-Cre'
p1212
aF59.225340985709295
aFnan
aF69.1590774199241
aFnan
aFnan
aa(lp1213
S'484679812'
p1214
aS'Rorb-IRES2-Cre-D'
p1215
aF77.7578424059579
aF70.2136027027956
aF70.78637289308199
aF79.9028154336752
aF81.0941670828687
aa(lp1216
S'422738880'
p1217
aS'Nr5a1-Cre'
p1218
aF64.8164085940725
aF66.413100787929
aF52.019800053742
aF59.6143646499538
aF64.9174262443046
aa(lp1219
S'341016267'
p1220
aS'Pvalb-IRES-Cre'
p1221
aF96.8560757535103
aFnan
aF97.3709875686265
aFnan
aFnan
aa(lp1222
S'519749342'
p1223
aS'Htr3a-Cre_NO152'
p1224
aF49.5590694318594
aFnan
aF41.257062486963704
aFnan
aFnan
aa(lp1225
S'487158599'
p1226
aS'Htr3a-Cre_NO152'
p1227
aF74.9564706783726
aF65.26051553761299
aF89.3403932443499
aF82.5643084299458
aF85.6287032965615
aa(lp1228
S'510702728'
p1229
aS'Rorb-IRES2-Cre-D'
p1230
aF75.6028142376606
aFnan
aF38.3160608510822
aFnan
aFnan
aa(lp1231
S'563620254'
p1232
aS'Nkx2-1-CreERT2'
p1233
aF96.99872779343511
aFnan
aF93.0921582601777
aFnan
aFnan
aa(lp1234
S'573105010'
p1235
aS'Chrna2-Cre_OE25'
p1236
aF61.478691595350796
aFnan
aF66.175160468853
aFnan
aFnan
aa(lp1237
S'324266189'
p1238
aS'Sst-IRES-Cre'
p1239
aF76.3140155582961
aFnan
aF65.7415195777683
aFnan
aFnan
aa(lp1240
S'513510227'
p1241
aS'Cux2-CreERT2'
p1242
aF61.3135174617629
aFnan
aF75.5735463213322
aFnan
aFnan
aa(lp1243
S'467703703'
p1244
aS'Scnn1a-Tg2-Cre'
p1245
aF73.2944220174349
aFnan
aF65.5953030099214
aFnan
aFnan
aa(lp1246
S'569670455'
p1247
aS'Chrna2-Cre_OE25'
p1248
aF65.709460533579
aFnan
aF65.8397959466097
aFnan
aFnan
aa(lp1249
S'487446992'
p1250
aS'Cux2-CreERT2'
p1251
aF66.0694652377926
aFnan
aF70.03668288810981
aFnan
aFnan
aa(lp1252
S'490173806'
p1253
aS'Sst-IRES-Cre'
p1254
aF80.1430732623387
aFnan
aF84.653039860595
aFnan
aFnan
aa(lp1255
S'487601493'
p1256
aS'Cux2-CreERT2'
p1257
aF82.4968921443531
aFnan
aF69.42165444884431
aFnan
aFnan
aa(lp1258
S'469753383'
p1259
aS'Htr3a-Cre_NO152'
p1260
aF61.4962910146169
aF52.967380897543705
aF82.6352144730832
aF82.11885609522041
aF82.0212175799142
aa(lp1261
S'509620929'
p1262
aS'Vip-IRES-Cre'
p1263
aF51.753994367602395
aFnan
aF55.2692793175791
aFnan
aFnan
aa(lp1264
S'489751692'
p1265
aS'Cux2-CreERT2'
p1266
aF74.6933466455302
aFnan
aF86.7355855350743
aFnan
aFnan
aa(lp1267
S'489888898'
p1268
aS'Nr5a1-Cre'
p1269
aF76.9123857347828
aFnan
aF77.6993952124608
aFnan
aFnan
aa(lp1270
S'382982932'
p1271
aS'Nr5a1-Cre'
p1272
aF79.2043197159128
aFnan
aF84.86430911998049
aFnan
aFnan
aa(lp1273
S'328535908'
p1274
aS'Sst-IRES-Cre'
p1275
aF42.4483890914694
aF58.067041890792105
aF49.1059250155434
aF46.7010316864791
aF44.5473704992666
aa(lp1276
S'480648382'
p1277
aS'Rorb-IRES2-Cre-D'
p1278
aF76.0934019140701
aFnan
aF83.1730489197925
aFnan
aFnan
aa(lp1279
S'478058328'
p1280
aS'Pvalb-IRES-Cre'
p1281
aF92.4162184530256
aF89.2066953468587
aF97.56804874752531
aF97.8825301362236
aF97.8813572750808
aa(lp1282
S'464079491'
p1283
aS'Scnn1a-Tg2-Cre'
p1284
aF70.4669429122637
aF63.9191170541805
aF49.7563979847872
aF57.8024850346064
aF54.7905838106772
aa(lp1285
S'479415457'
p1286
aS'Scnn1a-Tg3-Cre'
p1287
aF64.6767559688845
aF73.1005992789999
aF58.597911905866894
aF62.4550688192526
aF64.07253187312409
aa(lp1288
S'570280138'
p1289
aS'Chat-IRES-Cre-neo'
p1290
aF62.799778872676704
aFnan
aF78.2226953877884
aFnan
aFnan
aa(lp1291
S'478499902'
p1292
aS'Rorb-IRES2-Cre-D'
p1293
aF62.436331239947094
aFnan
aF55.8094322660028
aFnan
aFnan
aa(lp1294
S'566517779'
p1295
aS'Chrna2-Cre_OE25'
p1296
aF70.56976164245769
aFnan
aF61.7273807829115
aFnan
aFnan
aa(lp1297
S'464188580'
p1298
aS'Htr3a-Cre_NO152'
p1299
aF67.4068627391846
aF57.102690456859996
aF88.3015282454719
aF90.58180910857
aF89.4416689172428
aa(lp1300
S'487405644'
p1301
aS'Pvalb-IRES-Cre'
p1302
aF93.6267459747869
aFnan
aF97.8978117495363
aFnan
aFnan
aa(lp1303
S'486557574'
p1304
aS'Htr3a-Cre_NO152'
p1305
aF76.6395562558279
aFnan
aF79.2950081706194
aFnan
aFnan
aa(lp1306
S'488419491'
p1307
aS'Rbp4-Cre_KL100'
p1308
aF74.5926321687025
aF68.8871073646179
aF82.6787266404283
aF80.6827557727899
aF81.584131976119
aa(lp1309
S'555263276'
p1310
aS'Chrna2-Cre_OE25'
p1311
aF70.5102368478268
aFnan
aF71.1252378440294
aFnan
aFnan
aa(lp1312
S'532571720'
p1313
aS'Ctgf-2A-dgCre'
p1314
aF69.3675074190088
aFnan
aF75.49063630000549
aFnan
aFnan
aa(lp1315
S'475895240'
p1316
aS'Pvalb-IRES-Cre'
p1317
aF95.3971080258958
aF87.0837468074608
aF95.5813621381706
aF95.3231849909883
aF94.9550785782702
aa(lp1318
S'518290966'
p1319
aS'Scnn1a-Tg2-Cre'
p1320
aF62.2135827424256
aFnan
aF57.3376060192692
aFnan
aFnan
aa(lp1321
S'490612150'
p1322
aS'Rorb-IRES2-Cre-D'
p1323
aF83.2650607838806
aFnan
aF93.6216005966795
aFnan
aFnan
aa(lp1324
S'555251867'
p1325
aS'Chrna2-Cre_OE25'
p1326
aF84.6953192093665
aFnan
aF75.7820801729124
aFnan
aFnan
aa(lp1327
S'519517188'
p1328
aS'Htr3a-Cre_NO152'
p1329
aF74.8989092011379
aF68.1916500331174
aF87.7515735483792
aF83.3414882914458
aF84.9350449197006
aa(lp1330
S'497583188'
p1331
aS'Rorb-IRES2-Cre-D'
p1332
aF40.9950243660691
aFnan
aF38.3508918398229
aFnan
aFnan
aa(lp1333
S'524876305'
p1334
aS'Vip-IRES-Cre'
p1335
aF66.6973386601191
aF69.6995520353341
aF75.09009166995591
aF76.1970751319391
aF77.8186603591535
aa(lp1336
S'485061364'
p1337
aS'Sst-IRES-Cre'
p1338
aF91.3473166900791
aFnan
aF95.95481723697739
aFnan
aFnan
aa(lp1339
S'489259263'
p1340
aS'Cux2-CreERT2'
p1341
aF76.1925694708771
aFnan
aF67.5796290225569
aFnan
aFnan
aa(lp1342
S'502143149'
p1343
aS'Rorb-IRES2-Cre-D'
p1344
aF80.79105133167211
aFnan
aF66.0915113259842
aFnan
aFnan
aa(lp1345
S'488380827'
p1346
aS'Rbp4-Cre_KL100'
p1347
aF79.90581364814359
aF61.4771111180193
aF88.6343680186593
aF90.080049589488
aF91.9679261737632
aa(lp1348
S'509617624'
p1349
aS'Pvalb-IRES-Cre'
p1350
aF94.6304807775822
aFnan
aF92.010861916744
aFnan
aFnan
aa(lp1351
S'490558274'
p1352
aS'Rbp4-Cre_KL100'
p1353
aF81.90883982401101
aFnan
aF82.2245579549633
aFnan
aFnan
aa(lp1354
S'333785935'
p1355
aS'Pvalb-IRES-Cre'
p1356
aF42.5818901731355
aFnan
aF42.9211833067042
aFnan
aFnan
aa(lp1357
S'487353993'
p1358
aS'Cux2-CreERT2'
p1359
aF74.5706468329457
aFnan
aF82.07889712581479
aFnan
aFnan
aa(lp1360
S'485574832'
p1361
aS'Rbp4-Cre_KL100'
p1362
aF85.34049817913491
aF68.9174947023792
aF80.0386054882965
aF86.6544721290672
aF88.07637970532
aa(lp1363
S'314617802'
p1364
aS'Rorb-IRES2-Cre-D'
p1365
aF37.9519081168843
aFnan
aF40.5601449691118
aFnan
aFnan
aa(lp1366
S'477991293'
p1367
aS'Htr3a-Cre_NO152'
p1368
aF73.9844527167479
aFnan
aF92.0708440687999
aFnan
aFnan
aa(lp1369
S'487668030'
p1370
aS'Pvalb-IRES-Cre'
p1371
aF72.0127973825961
aFnan
aF75.55321015028859
aFnan
aFnan
aa(lp1372
S'328031983'
p1373
aS'Sst-IRES-Cre'
p1374
aF89.7916452826303
aF89.0575346087072
aF89.4614253267323
aF90.11080068357819
aF90.3015056010146
aa(lp1375
S'517645929'
p1376
aS'Scnn1a-Tg2-Cre'
p1377
aF47.5972696543295
aFnan
aF48.988918707002
aFnan
aFnan
aa(lp1378
S'561934585'
p1379
aS'Vip-IRES-Cre'
p1380
aF69.2665551660974
aF64.2410168818442
aF76.71610804395151
aF78.0470627555479
aF81.87710400000519
aa(lp1381
S'488686369'
p1382
aS'Htr3a-Cre_NO152'
p1383
aF68.7522284389349
aF65.34990947151181
aF87.7200149642543
aF88.4238568493645
aF88.5502195322279
aa(lp1384
S'480169178'
p1385
aS'Rorb-IRES2-Cre-D'
p1386
aF65.6921725944854
aF77.469970884218
aF77.1686125848004
aF76.7298220215538
aF80.62717643378619
aa(lp1387
S'469614747'
p1388
aS'Pvalb-IRES-Cre'
p1389
aF91.0733222324849
aFnan
aF96.8130520208918
aFnan
aFnan
aa(lp1390
S'471141261'
p1391
aS'Rbp4-Cre_KL100'
p1392
aF80.7869940443763
aF46.1235566945023
aF70.32634241175761
aF75.6875464699041
aF79.7437856843994
aa(lp1393
S'322197160'
p1394
aS'Sst-IRES-Cre'
p1395
aF31.348279372981402
aF38.7722241907148
aF55.263229036378306
aF57.63514151026799
aF58.6796643424653
aa(lp1396
S'518623704'
p1397
aS'Chat-IRES-Cre-neo'
p1398
aF78.6549526900297
aFnan
aF80.0323825738431
aFnan
aFnan
aa(lp1399
S'490170480'
p1400
aS'Cux2-CreERT2'
p1401
aF79.707029124305
aFnan
aF77.235251604919
aFnan
aFnan
aa(lp1402
S'480735016'
p1403
aS'Pvalb-IRES-Cre'
p1404
aF27.8126725603529
aFnan
aF25.8510683869677
aFnan
aFnan
aa(lp1405
S'503254105'
p1406
aS'Pvalb-IRES-Cre'
p1407
aF75.44645180635399
aFnan
aF82.6759667914215
aFnan
aFnan
aa(lp1408
S'320668841'
p1409
aS'Scnn1a-Tg2-Cre'
p1410
aF49.4405746019089
aF60.284879175961
aF41.477311953382
aF43.875759117602
aF42.435322912471804
aa(lp1411
S'473642382'
p1412
aS'Rorb-IRES2-Cre-D'
p1413
aF70.79689589586499
aF67.61569311089521
aF77.4555494321671
aF79.5149765469912
aF79.9167400375396
aa(lp1414
S'482809953'
p1415
aS'Nr5a1-Cre'
p1416
aF65.9671114882999
aF62.0721061525918
aF60.260527678329
aF63.207750712104
aF67.773240963346
aa(lp1417
S'491029832'
p1418
aS'Sst-IRES-Cre'
p1419
aF85.4894253810746
aFnan
aF90.1823128124109
aFnan
aFnan
aa(lp1420
S'522257166'
p1421
aS'Htr3a-Cre_NO152'
p1422
aF65.95805615372011
aFnan
aF74.21989443660931
aFnan
aFnan
aa(lp1423
S'570438732'
p1424
aS'Chat-IRES-Cre-neo'
p1425
aF63.733056431891896
aFnan
aF67.7235678416643
aFnan
aFnan
aa(lp1426
S'485184849'
p1427
aS'Pvalb-IRES-Cre'
p1428
aF95.8814812039975
aFnan
aF96.5680644794968
aFnan
aFnan
aa(lp1429
S'490779678'
p1430
aS'Rbp4-Cre_KL100'
p1431
aF76.4571433792106
aFnan
aF70.0245021538618
aFnan
aFnan
aa(lp1432
S'482516216'
p1433
aS'Htr3a-Cre_NO152'
p1434
aF72.717266411838
aF74.1817979020632
aF84.1176903879932
aF83.2891187471661
aF85.0622356923764
aa(lp1435
S'469704261'
p1436
aS'Nr5a1-Cre'
p1437
aF81.4038508512447
aF72.0707532908684
aF89.1923535502807
aF90.48230390766871
aF90.8968852352808
aa(lp1438
S'523205934'
p1439
aS'Vip-IRES-Cre'
p1440
aF42.1051426629027
aF43.5636238943073
aF62.630341827602095
aF62.6186185867496
aF63.059597370099496
aa(lp1441
S'488432250'
p1442
aS'Ntsr1-Cre_GN220'
p1443
aF82.2853656784597
aF73.8306005158563
aF71.5035660718341
aF73.3518722431734
aF76.27225490178971
aa(lp1444
S'488440436'
p1445
aS'Pvalb-IRES-Cre'
p1446
aF94.3043510932858
aFnan
aF95.9154890856088
aFnan
aFnan
aa(lp1447
S'578774163'
p1448
aS'Chat-IRES-Cre-neo'
p1449
aF57.0589673708357
aFnan
aF71.3602883155899
aFnan
aFnan
aa(lp1450
S'500857324'
p1451
aS'Rorb-IRES2-Cre-D'
p1452
aF58.9985322910559
aF62.69215992662009
aF58.153563126680694
aF63.0722413906747
aF75.4901877355807
aa(lp1453
S'476615310'
p1454
aS'Rorb-IRES2-Cre-D'
p1455
aF62.9362848903624
aFnan
aF64.15900976733751
aFnan
aFnan
aa(lp1456
S'469864405'
p1457
aS'Scnn1a-Tg3-Cre'
p1458
aF70.3503161910504
aFnan
aF65.7111812613699
aFnan
aFnan
aa(lp1459
S'479722622'
p1460
aS'Rbp4-Cre_KL100'
p1461
aF57.8769173949898
aF60.619560294863895
aF51.592545959754496
aF53.116987660069405
aF60.3343488705412
aa(lp1462
S'480952106'
p1463
aS'Pvalb-IRES-Cre'
p1464
aF88.20947925789349
aFnan
aF94.8455970924453
aFnan
aFnan
aa(lp1465
S'521958756'
p1466
aS'Cux2-CreERT2'
p1467
aF66.38979509284259
aF68.5576935141882
aF66.8025159838395
aF65.9761156374816
aF76.9345225776297
aa(lp1468
S'478396248'
p1469
aS'Sst-IRES-Cre'
p1470
aF57.189724116916196
aFnan
aF51.6964448509542
aFnan
aFnan
aa(lp1471
S'482726727'
p1472
aS'Nr5a1-Cre'
p1473
aF61.2236059555667
aFnan
aF50.069074519991794
aFnan
aFnan
aa(lp1474
S'476218657'
p1475
aS'Scnn1a-Tg3-Cre'
p1476
aF71.5324245296969
aFnan
aF76.2371556431909
aFnan
aFnan
aa(lp1477
S'327566447'
p1478
aS'Htr3a-Cre_NO152'
p1479
aF51.568613905189096
aFnan
aF60.8621994076204
aFnan
aFnan
aa(lp1480
S'501891177'
p1481
aS'Ctgf-2A-dgCre'
p1482
aF62.69406563437659
aFnan
aF53.11588430017859
aFnan
aFnan
aa(lp1483
S'354833767'
p1484
aS'Nr5a1-Cre'
p1485
aF65.0518080053519
aFnan
aF72.832427847784
aFnan
aFnan
aa(lp1486
S'489754156'
p1487
aS'Nr5a1-Cre'
p1488
aF70.3559776740981
aF60.8441510876887
aF82.20648798678481
aF82.9240309156681
aF83.0813983235569
aa(lp1489
S'566541912'
p1490
aS'Nkx2-1-CreERT2'
p1491
aF71.3538880596913
aFnan
aF67.71061035136769
aFnan
aFnan
aa(lp1492
S'473564515'
p1493
aS'Sst-IRES-Cre'
p1494
aF92.993255108509
aFnan
aF95.0322478519947
aFnan
aFnan
aa(lp1495
S'469734859'
p1496
aS'Nr5a1-Cre'
p1497
aF71.6823577576119
aFnan
aF70.8424981684992
aFnan
aFnan
aa(lp1498
S'561325425'
p1499
aS'Nkx2-1-CreERT2'
p1500
aF92.779062914327
aFnan
aF91.08881081911649
aFnan
aFnan
aa(lp1501
S'478412623'
p1502
aS'Sst-IRES-Cre'
p1503
aF51.392158947601295
aFnan
aF58.2212142128432
aFnan
aFnan
aa(lp1504
S'322781822'
p1505
aS'Ntsr1-Cre_GN220'
p1506
aF53.732776766286094
aFnan
aF68.662851586527
aFnan
aFnan
aa(lp1507
S'514544971'
p1508
aS'Nr5a1-Cre'
p1509
aF66.6824928991817
aFnan
aF25.364480178446403
aFnan
aFnan
aa(lp1510
S'534141324'
p1511
aS'Sst-IRES-Cre'
p1512
aF89.1164987582907
aFnan
aF91.6243606272186
aFnan
aFnan
aa(lp1513
S'485570335'
p1514
aS'Nr5a1-Cre'
p1515
aF57.7477041999692
aFnan
aF50.44537848236919
aFnan
aFnan
aa(lp1516
S'502978383'
p1517
aS'Nr5a1-Cre'
p1518
aF67.5382689259892
aFnan
aF73.8734552986423
aFnan
aFnan
aa(lp1519
S'497611660'
p1520
aS'Rorb-IRES2-Cre-D'
p1521
aF76.6779442537154
aFnan
aF82.7183391583613
aFnan
aFnan
aa(lp1522
S'474637203'
p1523
aS'Htr3a-Cre_NO152'
p1524
aF75.4537498979975
aF55.127033934271495
aF94.7875783252394
aF95.19003897637039
aF95.2852445603313
aa(lp1525
S'477879512'
p1526
aS'Htr3a-Cre_NO152'
p1527
aF66.730814661786
aF63.782945594987595
aF92.3169138930601
aF90.8449604496313
aF90.8259234406446
aa(lp1528
S'487664070'
p1529
aS'Rbp4-Cre_KL100'
p1530
aF73.9551975122673
aFnan
aF75.2515966183166
aFnan
aFnan
aa(lp1531
S'481003643'
p1532
aS'Htr3a-Cre_NO152'
p1533
aF71.0134495390648
aFnan
aF88.13887284289909
aFnan
aFnan
aa(lp1534
S'481136214'
p1535
aS'Htr3a-Cre_NO152'
p1536
aF71.4163054703297
aF61.220169424599305
aF91.53706703525731
aF92.6433457121326
aF93.0005054413451
aa(lp1537
S'475542907'
p1538
aS'Sst-IRES-Cre'
p1539
aF77.1039911773993
aF78.3782064139354
aF78.1968831547015
aF75.45178275857461
aF75.8223474036825
aa(lp1540
S'322723785'
p1541
aS'Rorb-IRES2-Cre-D'
p1542
aF76.5009312111857
aF67.59408838718201
aF73.0559151838995
aF80.6449034976142
aF81.57666706692261
aa(lp1543
S'484742372'
p1544
aS'Pvalb-IRES-Cre'
p1545
aF92.9024326399378
aF87.0979463808057
aF96.037658329043
aF96.4511712171922
aF96.3430065210898
aa(lp1546
S'476048909'
p1547
aS'Rorb-IRES2-Cre-D'
p1548
aF55.5866348192675
aFnan
aF60.871890806671004
aFnan
aFnan
aa(lp1549
S'479492633'
p1550
aS'Rorb-IRES2-Cre-D'
p1551
aF56.52929973412179
aFnan
aF52.5397753029394
aFnan
aFnan
aa(lp1552
S'502120615'
p1553
aS'Rorb-IRES2-Cre-D'
p1554
aF55.2282968502567
aFnan
aF58.542506007549
aFnan
aFnan
aa(lp1555
S'514530024'
p1556
aS'Nr5a1-Cre'
p1557
aF52.1579160381609
aFnan
aF51.102587374003406
aFnan
aFnan
aa(lp1558
S'486236426'
p1559
aS'Rbp4-Cre_KL100'
p1560
aF77.5659564788294
aFnan
aF84.8776698176631
aFnan
aFnan
aa(lp1561
S'488770805'
p1562
aS'Pvalb-IRES-Cre'
p1563
aF55.5187691362694
aFnan
aF76.9874756698641
aFnan
aFnan
aa(lp1564
S'323834998'
p1565
aS'Scnn1a-Tg3-Cre'
p1566
aF85.1658752798052
aF80.2321004376069
aF92.0417997596475
aF88.01207267065
aF87.6554183025102
aa(lp1567
S'507914933'
p1568
aS'Ntsr1-Cre_GN220'
p1569
aF72.0246415664441
aFnan
aF84.5932200980906
aFnan
aFnan
aa(lp1570
S'508911693'
p1571
aS'Rbp4-Cre_KL100'
p1572
aF56.2597146788639
aF64.7853190548525
aF54.870978158925
aF64.4310007735556
aF66.74533459976631
aa(lp1573
S'507100117'
p1574
aS'Rorb-IRES2-Cre-D'
p1575
aF62.0507348719487
aFnan
aF62.1267109685285
aFnan
aFnan
aa(lp1576
S'486500736'
p1577
aS'Rorb-IRES2-Cre-D'
p1578
aF72.1152368406059
aF69.9333270567424
aF76.4108892138634
aF74.1446029507742
aF75.1381930548355
aa(lp1579
S'482444444'
p1580
aS'Pvalb-IRES-Cre'
p1581
aF96.5130352174829
aFnan
aF97.5371833223987
aFnan
aFnan
aa(lp1582
S'501940485'
p1583
aS'Ctgf-2A-dgCre'
p1584
aF46.8476925500186
aF45.7532060139196
aF46.2527674141094
aF46.1485491030376
aF42.8590022406214
aa(lp1585
S'490982660'
p1586
aS'Rbp4-Cre_KL100'
p1587
aF76.7225094561252
aF51.603989891799195
aF86.1021085214545
aF87.4217276480453
aF88.0620638120275
aa(lp1588
S'503814817'
p1589
aS'Ntsr1-Cre_GN220'
p1590
aF68.45204009702141
aF60.9919535380222
aF79.4253109603882
aF82.2546344007132
aF84.540859704786
aa(lp1591
S'479766169'
p1592
aS'Rorb-IRES2-Cre-D'
p1593
aF70.87808214521691
aF61.27978549539171
aF83.3906931407731
aF74.6808042257729
aF86.90536012222479
aa(lp1594
S'466378900'
p1595
aS'Rorb-IRES2-Cre-D'
p1596
aF79.6508962336754
aFnan
aF73.5910261016811
aFnan
aFnan
aa(lp1597
S'502366405'
p1598
aS'Ctgf-2A-dgCre'
p1599
aF74.17752394091231
aFnan
aF60.106507441891296
aFnan
aFnan
aa(lp1600
S'475400072'
p1601
aS'Rbp4-Cre_KL100'
p1602
aF75.0796292393819
aF75.2326994192361
aF56.6238188449349
aF81.3438183529146
aF82.0082485366018
aa(lp1603
S'560889670'
p1604
aS'Chat-IRES-Cre-neo'
p1605
aF59.9785101623065
aFnan
aF66.5238564610435
aFnan
aFnan
aa(lp1606
S'485836906'
p1607
aS'Rorb-IRES2-Cre-D'
p1608
aF67.4390987018336
aFnan
aF75.2461995519786
aFnan
aFnan
aa(lp1609
S'566671538'
p1610
aS'Chrna2-Cre_OE25'
p1611
aF50.80602654321859
aF54.3696902090024
aF65.2085070331772
aF69.6474888032243
aF73.8621520575137
aa(lp1612
S'509003464'
p1613
aS'Ntsr1-Cre_GN220'
p1614
aF70.85715372405271
aF61.787370218594795
aF67.8749818243797
aF71.6152447415171
aF81.8774278327837
aa(lp1615
S'329241587'
p1616
aS'Sst-IRES-Cre'
p1617
aF42.396144506675796
aFnan
aF42.5239545790331
aFnan
aFnan
aa(lp1618
S'490601284'
p1619
aS'Rbp4-Cre_KL100'
p1620
aF61.1182039495479
aF62.2568538742424
aF55.633183869620396
aF56.6551119896791
aF57.3130542167946
aa(lp1621
S'482764620'
p1622
aS'Htr3a-Cre_NO152'
p1623
aF44.8968897919776
aF45.1027926426479
aF54.0500512374929
aF54.1789740810958
aF60.6085757520355
aa(lp1624
S'318733871'
p1625
aS'Nr5a1-Cre'
p1626
aF63.8226820561679
aF66.46446248810321
aF58.219969770312495
aF73.4694934168298
aF73.9204164135391
aa(lp1627
S'313861828'
p1628
aS'Scnn1a-Tg3-Cre'
p1629
aF62.20317842029301
aFnan
aF58.517511873296
aFnan
aFnan
aa(lp1630
S'476557750'
p1631
aS'Scnn1a-Tg3-Cre'
p1632
aF64.6303587040518
aF62.644142621729905
aF69.1858206747484
aF74.0103134862625
aF74.2270266281468
aa(lp1633
S'321707905'
p1634
aS'Pvalb-IRES-Cre'
p1635
aF56.7406663908182
aFnan
aF47.6676835754058
aFnan
aFnan
aa(lp1636
S'469803127'
p1637
aS'Scnn1a-Tg3-Cre'
p1638
aF67.0887138904949
aF73.8936429190334
aF66.2303182403654
aF62.454106367131104
aF57.31351222393079
aa(lp1639
S'555898896'
p1640
aS'Chrna2-Cre_OE25'
p1641
aF64.8687810974828
aF69.2064705379745
aF55.247889903959205
aF62.123645179888
aF62.13229765934491
aa(lp1642
S'476452460'
p1643
aS'Nr5a1-Cre'
p1644
aF59.5761117654037
aFnan
aF50.008183539723504
aFnan
aFnan
aa(lp1645
S'519220630'
p1646
aS'Chat-IRES-Cre-neo'
p1647
aF75.65412979339911
aF81.46233529142471
aF80.9250111298512
aF82.5554147087997
aF83.17616230316311
aa(lp1648
S'324493977'
p1649
aS'Sst-IRES-Cre'
p1650
aF88.399891821359
aF80.88556905213629
aF83.0538958796183
aF86.8255305618236
aF87.14665246095839
aa(lp1651
S'502144146'
p1652
aS'Rorb-IRES2-Cre-D'
p1653
aF63.8812045647812
aFnan
aF29.816365122112398
aFnan
aFnan
aa(lp1654
S'581020172'
p1655
aS'Nkx2-1-CreERT2'
p1656
aF98.7300092545094
aFnan
aF96.9480768782339
aFnan
aFnan
aa(lp1657
S'566304697'
p1658
aS'Nkx2-1-CreERT2'
p1659
aF68.3258037839847
aFnan
aF76.675999264576
aFnan
aFnan
aa(lp1660
S'479711015'
p1661
aS'Rbp4-Cre_KL100'
p1662
aF70.0569846062768
aFnan
aF69.3419544660606
aFnan
aFnan
aa(lp1663
S'509881736'
p1664
aS'Ctgf-2A-dgCre'
p1665
aF58.8405339749836
aF59.3058465532319
aF58.4067726859873
aF64.0557474156557
aF65.0242670048515
aa(lp1666
S'313861794'
p1667
aS'Scnn1a-Tg3-Cre'
p1668
aF73.9910442175059
aF80.0209241758984
aF82.4982515325358
aF83.0142359374035
aF85.2406949898712
aa(lp1669
S'497560724'
p1670
aS'Sst-IRES-Cre'
p1671
aF74.6669198921963
aFnan
aF87.2177708428547
aFnan
aFnan
aa(lp1672
S'314642645'
p1673
aS'Rorb-IRES2-Cre-D'
p1674
aF68.5232525094639
aF74.8375778458534
aF63.3358939006833
aF71.1641787324923
aF69.3951657385294
aa(lp1675
S'531342116'
p1676
aS'Chat-IRES-Cre-neo'
p1677
aF39.960140062908
aFnan
aF39.1759893839881
aFnan
aFnan
aa(lp1678
S'480643417'
p1679
aS'Rorb-IRES2-Cre-D'
p1680
aF76.6822924063224
aF77.16297465591751
aF75.93897725348229
aF74.74577533438381
aF76.7414786617725
aa(lp1681
S'505200218'
p1682
aS'Cux2-CreERT2'
p1683
aF60.6636218560159
aFnan
aF53.1857970863492
aFnan
aFnan
aa(lp1684
S'490172112'
p1685
aS'Cux2-CreERT2'
p1686
aF42.2517825450204
aFnan
aF42.5940451119596
aFnan
aFnan
aa(lp1687
S'475838754'
p1688
aS'Nr5a1-Cre'
p1689
aF74.152849730943
aF70.7994672816317
aF80.2139802275005
aF80.2926071070356
aF83.3394061464292
aa(lp1690
S'562535995'
p1691
aS'Vip-IRES-Cre'
p1692
aF80.7325747513622
aF73.9077591081149
aF83.6143414649189
aF88.4735744951671
aF88.840712654845
aa(lp1693
S'329254830'
p1694
aS'Sst-IRES-Cre'
p1695
aF85.6053342144196
aFnan
aF91.535848408846
aFnan
aFnan
aa(lp1696
S'481003593'
p1697
aS'Htr3a-Cre_NO152'
p1698
aF78.82240615101061
aF73.3938210303385
aF89.4044354961138
aF91.40423045368739
aF90.9644317427966
aa(lp1699
S'553541110'
p1700
aS'Chat-IRES-Cre-neo'
p1701
aF65.3026505700654
aFnan
aF76.2479864618993
aFnan
aFnan
aa(lp1702
S'313862167'
p1703
aS'Sst-IRES-Cre'
p1704
aF90.8908087303024
aF82.7110189836267
aF91.5922133945387
aF94.5239563483232
aF94.3591894807975
aa(lp1705
S'466664172'
p1706
aS'Sst-IRES-Cre'
p1707
aF31.886747278518403
aFnan
aF36.1296686613569
aFnan
aFnan
aa(lp1708
S'506777471'
p1709
aS'Scnn1a-Tg2-Cre'
p1710
aF39.4465891345337
aFnan
aF56.249590443205896
aFnan
aFnan
aa(lp1711
S'482435718'
p1712
aS'Htr3a-Cre_NO152'
p1713
aF72.08962532350381
aFnan
aF82.9700910304502
aFnan
aFnan
aa(lp1714
S'486262299'
p1715
aS'Cux2-CreERT2'
p1716
aF72.5000825642902
aFnan
aF86.1833665509332
aFnan
aFnan
aa(lp1717
S'476104386'
p1718
aS'Sst-IRES-Cre'
p1719
aF92.75615408942511
aFnan
aF97.83120928197509
aFnan
aFnan
aa(lp1720
S'570924514'
p1721
aS'Vip-IRES-Cre'
p1722
aF64.08287403133019
aF67.8066145832004
aF59.5551118607103
aF62.9985485193124
aF64.393164118918
aa(lp1723
S'490916882'
p1724
aS'Rbp4-Cre_KL100'
p1725
aF73.1840512656267
aFnan
aF66.7824822199057
aFnan
aFnan
aa(lp1726
S'490376252'
p1727
aS'Cux2-CreERT2'
p1728
aF82.21858657780659
aF71.0231571302086
aF85.80936644265769
aF91.4328695731194
aF90.62117996784539
aa(lp1729
S'488501071'
p1730
aS'Pvalb-IRES-Cre'
p1731
aF85.9635269102241
aF89.3139183568433
aF87.89183670784139
aF91.7863956391319
aF91.5519934335584
aa(lp1732
S'522408506'
p1733
aS'Htr3a-Cre_NO152'
p1734
aF75.5594278174478
aFnan
aF80.8030859510083
aFnan
aFnan
aa(lp1735
S'501848315'
p1736
aS'Rorb-IRES2-Cre-D'
p1737
aF61.528128029447906
aFnan
aF61.05697131405869
aFnan
aFnan
aa(lp1738
S'507996688'
p1739
aS'Rbp4-Cre_KL100'
p1740
aF59.789394149722895
aFnan
aF59.6953136003724
aFnan
aFnan
aa(lp1741
S'488677318'
p1742
aS'Sst-IRES-Cre'
p1743
aF74.54834724435871
aFnan
aF62.7953231489481
aFnan
aFnan
aa(lp1744
S'485287944'
p1745
aS'Ntsr1-Cre_GN220'
p1746
aF70.1979350405495
aFnan
aF81.0488628408055
aFnan
aFnan
aa(lp1747
S'323838579'
p1748
aS'Scnn1a-Tg3-Cre'
p1749
aF77.8451510563961
aF73.1405056756248
aF84.2759937212809
aF85.183460462915
aF85.2269990164588
aa(lp1750
S'469832490'
p1751
aS'Scnn1a-Tg3-Cre'
p1752
aF57.834499394232495
aF53.367810219646195
aF58.9242783084874
aF60.3778811128007
aF60.871920556583405
aa(lp1753
S'481127173'
p1754
aS'Pvalb-IRES-Cre'
p1755
aF94.4862297646819
aF89.4669004934353
aF97.06929050057221
aF97.0892800355567
aF96.80457363524991
aa(lp1756
S'504615116'
p1757
aS'Rorb-IRES2-Cre-D'
p1758
aF59.5947699740507
aF57.2054174385323
aF58.811577349840306
aF52.013063422499194
aF50.7283419485959
aa(lp1759
S'566460800'
p1760
aS'Chrna2-Cre_OE25'
p1761
aF80.4143811858505
aFnan
aF89.4147787942253
aFnan
aFnan
aa(lp1762
S'490733962'
p1763
aS'Rbp4-Cre_KL100'
p1764
aF76.9454539020178
aFnan
aF65.7470245656037
aFnan
aFnan
aa(lp1765
S'507770911'
p1766
aS'Scnn1a-Tg2-Cre'
p1767
aF68.9526389854508
aFnan
aF68.5335300184158
aFnan
aFnan
aa(lp1768
S'469793303'
p1769
aS'Scnn1a-Tg3-Cre'
p1770
aF66.87444660232
aFnan
aF59.250574321529704
aFnan
aFnan
aa(lp1771
S'475740357'
p1772
aS'Htr3a-Cre_NO152'
p1773
aF78.43195545693379
aF78.400195994443
aF76.047450215167
aF79.2762179609881
aF79.1750073732326
aa(lp1774
S'473943881'
p1775
aS'Htr3a-Cre_NO152'
p1776
aF68.8964567420777
aFnan
aF90.4463674196075
aFnan
aFnan
aa(lp1777
S'478586295'
p1778
aS'Rorb-IRES2-Cre-D'
p1779
aF63.983565867869
aFnan
aF86.8904758034997
aFnan
aFnan
aa(lp1780
S'322229594'
p1781
aS'Sst-IRES-Cre'
p1782
aF71.85863301552719
aF72.9198373618441
aF63.0837841848476
aF69.0774636029345
aF70.3493564950063
aa(lp1783
S'515264431'
p1784
aS'Vip-IRES-Cre'
p1785
aF38.057938757678
aFnan
aF38.465541284571906
aFnan
aFnan
aa(lp1786
S'522418855'
p1787
aS'Vip-IRES-Cre'
p1788
aF87.19279736034899
aFnan
aF88.71610358733089
aFnan
aFnan
aa(lp1789
S'508987256'
p1790
aS'Ntsr1-Cre_GN220'
p1791
aF52.19305963126351
aFnan
aF66.6932210515912
aFnan
aFnan
aa(lp1792
S'531121585'
p1793
aS'Vip-IRES-Cre'
p1794
aF81.4734559472605
aFnan
aF76.2310789928741
aFnan
aFnan
aa(lp1795
S'478958894'
p1796
aS'Pvalb-IRES-Cre'
p1797
aF95.5867954257143
aF91.2231604598571
aF97.3188133614132
aF97.6371798017224
aF97.39331363346089
aa(lp1798
S'474267418'
p1799
aS'Htr3a-Cre_NO152'
p1800
aF77.676692911229
aFnan
aF65.1575916104481
aFnan
aFnan
aa(lp1801
S'486466923'
p1802
aS'Rorb-IRES2-Cre-D'
p1803
aF61.80190080303431
aFnan
aF64.7167195125896
aFnan
aFnan
aa(lp1804
S'527089085'
p1805
aS'Ndnf-IRES2-dgCre'
p1806
aF90.659496498273
aFnan
aF91.9220795664418
aFnan
aFnan
aa(lp1807
S'483083617'
p1808
aS'Sst-IRES-Cre'
p1809
aF71.0315654799517
aF73.7461663380043
aF59.9765283951709
aF65.3998343805635
aF62.57581129072201
aa(lp1810
S'503286448'
p1811
aS'Ntsr1-Cre_GN220'
p1812
aF79.3245475049626
aFnan
aF84.3294520526646
aFnan
aFnan
aa(lp1813
S'370351753'
p1814
aS'Nr5a1-Cre'
p1815
aF68.8735425444557
aFnan
aF56.223986268649995
aFnan
aFnan
aa(lp1816
S'488688344'
p1817
aS'Ntsr1-Cre_GN220'
p1818
aF33.4764555801695
aFnan
aF30.364322885081002
aFnan
aFnan
aa(lp1819
S'476562817'
p1820
aS'Rorb-IRES2-Cre-D'
p1821
aF84.1249851466587
aF83.76263048711789
aF84.880767775926
aF84.9177514162012
aF84.8092502635999
aa(lp1822
S'489888847'
p1823
aS'Nr5a1-Cre'
p1824
aF79.2324284001798
aFnan
aF80.4129005593564
aFnan
aFnan
aa(lp1825
S'471800189'
p1826
aS'Ntsr1-Cre_GN220'
p1827
aF72.8768453172663
aFnan
aF81.0678525309569
aFnan
aFnan
aa(lp1828
S'369697038'
p1829
aS'Nr5a1-Cre'
p1830
aF71.4790278048801
aFnan
aF81.1632409048547
aFnan
aFnan
aa(lp1831
S'530204927'
p1832
aS'Ctgf-2A-dgCre'
p1833
aF61.8842846546957
aFnan
aF54.4618095259292
aFnan
aFnan
aa(lp1834
S'486941367'
p1835
aS'Htr3a-Cre_NO152'
p1836
aF81.66332491580201
aFnan
aF94.4636906951155
aFnan
aFnan
aa(lp1837
S'483099796'
p1838
aS'Cux2-CreERT2'
p1839
aF67.0135218404525
aFnan
aF66.9264769935475
aFnan
aFnan
aa(lp1840
S'485905411'
p1841
aS'Ntsr1-Cre_GN220'
p1842
aF61.1614366145254
aF54.5213670759091
aF77.2040657972598
aF77.5716720981523
aF77.8242368683273
aa(lp1843
S'422055317'
p1844
aS'Nr5a1-Cre'
p1845
aF55.5709781438178
aFnan
aF20.3762612942709
aFnan
aFnan
aa(lp1846
S'476753465'
p1847
aS'Sst-IRES-Cre'
p1848
aF88.77825989375519
aFnan
aF83.07564787439941
aFnan
aFnan
aa(lp1849
S'485931158'
p1850
aS'Rorb-IRES2-Cre-D'
p1851
aF67.5838414502322
aFnan
aF67.2580479905342
aFnan
aFnan
aa(lp1852
S'487445455'
p1853
aS'Cux2-CreERT2'
p1854
aF71.0050540742564
aF53.4807927310355
aF81.33226834937139
aF83.45136474929569
aF85.42421464872399
aa(lp1855
S'322762730'
p1856
aS'Ntsr1-Cre_GN220'
p1857
aF64.9862530842736
aFnan
aF84.4618770368681
aFnan
aFnan
aa(lp1858
S'581058351'
p1859
aS'Nkx2-1-CreERT2'
p1860
aF96.0797454898202
aF96.2394062138248
aF95.3011984741975
aF98.57156035532259
aF98.7040052352864
aa(lp1861
S'490916919'
p1862
aS'Rbp4-Cre_KL100'
p1863
aF71.5602550736058
aF59.9665834431791
aF72.4805716610241
aF76.78782589225091
aF78.7817613251838
aa(lp1864
S'482772037'
p1865
aS'Htr3a-Cre_NO152'
p1866
aF83.7221245668731
aF77.8840902084705
aF91.6869033808529
aF91.9799973210757
aF91.950637202938
aa(lp1867
S'527464013'
p1868
aS'Ndnf-IRES2-dgCre'
p1869
aF92.6436515635883
aF81.8634006732912
aF90.0755763243174
aF93.24151969969941
aF92.6716452134675
aa(lp1870
S'556968207'
p1871
aS'Chat-IRES-Cre-neo'
p1872
aF75.5268580706955
aFnan
aF82.47556974351569
aFnan
aFnan
aa(lp1873
S'480124551'
p1874
aS'Rorb-IRES2-Cre-D'
p1875
aF74.8701083797118
aFnan
aF83.278810485052
aFnan
aFnan
aa(lp1876
S'522723828'
p1877
aS'Ctgf-2A-dgCre'
p1878
aF43.9638656884968
aF43.4848369519845
aF41.991467193073504
aF36.4002290517036
aF40.0210088738592
aa(lp1879
S'517752298'
p1880
aS'Nr5a1-Cre'
p1881
aF47.2339966245002
aFnan
aF47.402642460079804
aFnan
aFnan
aa(lp1882
S'519549081'
p1883
aS'Htr3a-Cre_NO152'
p1884
aF74.1239992478556
aF73.638014586611
aF73.304595550118
aF74.7529967733816
aF74.752204394805
aa(lp1885
S'521625948'
p1886
aS'Cux2-CreERT2'
p1887
aF71.4386084610228
aFnan
aF74.726510829232
aFnan
aFnan
aa(lp1888
S'475586130'
p1889
aS'Htr3a-Cre_NO152'
p1890
aF68.4792532827077
aF66.30147518331539
aF80.5969483686632
aF77.55462464723179
aF79.5936116696107
aa(lp1891
S'520347870'
p1892
aS'Vip-IRES-Cre'
p1893
aF54.604022578274204
aFnan
aF54.21761090544061
aFnan
aFnan
aa(lp1894
S'515199779'
p1895
aS'Scnn1a-Tg3-Cre'
p1896
aF72.8864079587846
aFnan
aF43.9886486038605
aFnan
aFnan
aa(lp1897
S'563380422'
p1898
aS'Nkx2-1-CreERT2'
p1899
aF77.172938924917
aFnan
aF85.4659261854749
aFnan
aFnan
aa(lp1900
S'467357834'
p1901
aS'Rorb-IRES2-Cre-D'
p1902
aF66.0168669193571
aFnan
aF79.250686439359
aFnan
aFnan
aa(lp1903
S'517982558'
p1904
aS'Scnn1a-Tg2-Cre'
p1905
aF42.9025759789375
aFnan
aF44.617067023007
aFnan
aFnan
aa(lp1906
S'569653118'
p1907
aS'Chrna2-Cre_OE25'
p1908
aF62.007743002106295
aFnan
aF72.7802234262296
aFnan
aFnan
aa(lp1909
S'478586425'
p1910
aS'Rorb-IRES2-Cre-D'
p1911
aF85.8200101142395
aFnan
aF85.897655024411
aFnan
aFnan
aa(lp1912
S'488426904'
p1913
aS'Ntsr1-Cre_GN220'
p1914
aF75.4609437421229
aF57.2392817020846
aF88.2307633686079
aF90.0793569497889
aF90.2289863495762
aa(lp1915
S'515305346'
p1916
aS'Pvalb-IRES-Cre'
p1917
aF93.4810682190484
aF98.4173964787524
aF92.5715646666852
aF98.42323229545829
aF98.6275830543776
aa(lp1918
S'527095729'
p1919
aS'Ndnf-IRES2-dgCre'
p1920
aF82.9831842560074
aFnan
aF92.75934528721021
aFnan
aFnan
aa(lp1921
S'480171348'
p1922
aS'Sst-IRES-Cre'
p1923
aF22.6367910234185
aFnan
aF22.5926829268128
aFnan
aFnan
aa(lp1924
S'476131588'
p1925
aS'Scnn1a-Tg3-Cre'
p1926
aF48.8577597096919
aF57.2178971812945
aF41.2601469632935
aF36.9828264377399
aF40.0304190727662
aa(lp1927
S'322197295'
p1928
aS'Sst-IRES-Cre'
p1929
aF41.6751713334748
aF41.4757672611465
aF42.2295913173561
aF49.3670508407547
aF49.1292300450448
aa(lp1930
S'487664663'
p1931
aS'Rbp4-Cre_KL100'
p1932
aF50.267132443102604
aFnan
aF31.8550918239595
aFnan
aFnan
aa(lp1933
S'518238899'
p1934
aS'Scnn1a-Tg2-Cre'
p1935
aF63.423340787674995
aF68.42748149367111
aF56.8254122122981
aF61.4722638519132
aF63.8325264878426
aa(dp1936
S'Nr5a1-Cre'
p1937
(lp1938
g37
ag94
ag106
ag118
ag163
ag175
ag220
ag229
ag265
ag286
ag313
ag424
ag487
ag577
ag616
ag637
ag691
ag718
ag733
ag787
ag874
ag877
ag904
ag958
ag1063
ag1204
ag1216
ag1267
ag1270
ag1414
ag1435
ag1471
ag1483
ag1486
ag1495
ag1507
ag1513
ag1516
ag1555
ag1624
ag1642
ag1687
ag1813
ag1822
ag1828
ag1843
ag1879
asS'inhibitory'
p1939
(lp1940
g1
ag7
ag10
ag19
ag22
ag25
ag28
ag31
ag49
ag52
ag58
ag64
ag67
ag70
ag73
ag79
ag97
ag103
ag124
ag127
ag130
ag142
ag148
ag169
ag172
ag178
ag181
ag187
ag193
ag196
ag205
ag211
ag226
ag232
ag235
ag238
ag250
ag256
ag262
ag271
ag283
ag295
ag298
ag307
ag322
ag328
ag334
ag337
ag346
ag349
ag355
ag358
ag364
ag367
ag373
ag394
ag400
ag412
ag418
ag421
ag430
ag451
ag478
ag481
ag484
ag490
ag496
ag502
ag511
ag514
ag517
ag520
ag523
ag526
ag541
ag544
ag550
ag553
ag556
ag568
ag571
ag574
ag586
ag589
ag592
ag598
ag601
ag604
ag613
ag622
ag625
ag634
ag661
ag676
ag679
ag682
ag688
ag697
ag700
ag703
ag712
ag715
ag721
ag730
ag736
ag745
ag748
ag754
ag757
ag766
ag772
ag775
ag778
ag781
ag805
ag808
ag814
ag820
ag826
ag838
ag841
ag853
ag862
ag883
ag886
ag907
ag913
ag916
ag919
ag922
ag931
ag943
ag946
ag949
ag955
ag961
ag979
ag988
ag991
ag997
ag1000
ag1003
ag1009
ag1012
ag1015
ag1024
ag1027
ag1033
ag1036
ag1051
ag1069
ag1075
ag1087
ag1090
ag1102
ag1105
ag1111
ag1129
ag1132
ag1135
ag1138
ag1147
ag1150
ag1153
ag1156
ag1165
ag1168
ag1174
ag1189
ag1192
ag1198
ag1207
ag1210
ag1219
ag1222
ag1225
ag1231
ag1234
ag1237
ag1246
ag1252
ag1258
ag1261
ag1273
ag1279
ag1288
ag1294
ag1297
ag1300
ag1303
ag1309
ag1315
ag1324
ag1327
ag1333
ag1336
ag1348
ag1354
ag1366
ag1369
ag1372
ag1378
ag1381
ag1387
ag1393
ag1396
ag1402
ag1405
ag1417
ag1420
ag1423
ag1426
ag1432
ag1438
ag1444
ag1447
ag1462
ag1468
ag1477
ag1489
ag1492
ag1498
ag1501
ag1510
ag1522
ag1525
ag1531
ag1534
ag1537
ag1543
ag1561
ag1579
ag1603
ag1609
ag1615
ag1621
ag1633
ag1639
ag1645
ag1648
ag1654
ag1657
ag1669
ag1675
ag1690
ag1693
ag1696
ag1699
ag1702
ag1705
ag1711
ag1717
ag1720
ag1729
ag1732
ag1741
ag1753
ag1759
ag1771
ag1774
ag1780
ag1783
ag1786
ag1792
ag1795
ag1798
ag1804
ag1807
ag1834
ag1846
ag1858
ag1864
ag1867
ag1870
ag1882
ag1888
ag1891
ag1897
ag1906
ag1915
ag1918
ag1921
ag1927
asS'Cux2-CreERT2'
p1941
(lp1942
g55
ag133
ag145
ag154
ag157
ag190
ag208
ag259
ag274
ag289
ag304
ag370
ag397
ag436
ag445
ag457
ag466
ag475
ag562
ag643
ag649
ag664
ag670
ag709
ag739
ag769
ag796
ag829
ag844
ag856
ag868
ag895
ag937
ag967
ag1018
ag1021
ag1108
ag1117
ag1180
ag1183
ag1186
ag1240
ag1249
ag1255
ag1264
ag1339
ag1357
ag1399
ag1465
ag1681
ag1684
ag1714
ag1726
ag1837
ag1852
ag1885
asS'Ctgf-2A-dgCre'
p1943
(lp1944
g85
ag136
ag244
ag310
ag385
ag391
ag463
ag655
ag802
ag823
ag910
ag1096
ag1114
ag1312
ag1480
ag1582
ag1597
ag1663
ag1831
ag1876
asS'Vip-IRES-Cre'
p1945
(lp1946
g211
ag349
ag364
ag634
ag745
ag775
ag781
ag1087
ag1156
ag1261
ag1333
ag1378
ag1438
ag1690
ag1720
ag1783
ag1786
ag1792
ag1891
asS'Scnn1a-Tg2-Cre'
p1947
(lp1948
g4
ag115
ag319
ag340
ag409
ag415
ag469
ag535
ag835
ag847
ag865
ag871
ag1054
ag1243
ag1282
ag1318
ag1375
ag1408
ag1708
ag1765
ag1903
ag1933
asS'Ntsr1-Cre_GN220'
p1949
(lp1950
g43
ag82
ag88
ag121
ag241
ag268
ag352
ag472
ag529
ag559
ag583
ag646
ag685
ag694
ag706
ag724
ag751
ag799
ag859
ag901
ag928
ag964
ag970
ag973
ag985
ag1093
ag1441
ag1504
ag1567
ag1588
ag1612
ag1744
ag1789
ag1810
ag1816
ag1825
ag1840
ag1855
ag1912
asS'Sst-IRES-Cre'
p1951
(lp1952
g19
ag22
ag31
ag124
ag196
ag232
ag238
ag307
ag334
ag355
ag358
ag400
ag430
ag478
ag490
ag496
ag511
ag517
ag526
ag568
ag589
ag661
ag721
ag748
ag757
ag772
ag805
ag841
ag853
ag862
ag913
ag946
ag961
ag1000
ag1015
ag1051
ag1129
ag1135
ag1210
ag1237
ag1252
ag1273
ag1336
ag1372
ag1393
ag1417
ag1468
ag1492
ag1501
ag1510
ag1537
ag1615
ag1648
ag1669
ag1693
ag1702
ag1705
ag1717
ag1741
ag1780
ag1807
ag1846
ag1921
ag1927
asS'Rbp4-Cre_KL100'
p1953
(lp1954
g34
ag46
ag109
ag112
ag199
ag214
ag247
ag277
ag376
ag379
ag382
ag565
ag580
ag628
ag631
ag658
ag667
ag763
ag790
ag832
ag850
ag889
ag892
ag898
ag952
ag982
ag1030
ag1042
ag1048
ag1057
ag1072
ag1084
ag1123
ag1144
ag1306
ag1345
ag1351
ag1360
ag1390
ag1429
ag1459
ag1528
ag1558
ag1570
ag1585
ag1600
ag1618
ag1660
ag1723
ag1738
ag1762
ag1861
ag1930
asS'Scnn1a-Tg3-Cre'
p1955
(lp1956
g13
ag16
ag61
ag76
ag160
ag217
ag325
ag388
ag406
ag442
ag454
ag493
ag505
ag640
ag673
ag811
ag817
ag1045
ag1078
ag1081
ag1099
ag1126
ag1159
ag1201
ag1285
ag1456
ag1474
ag1564
ag1627
ag1630
ag1636
ag1666
ag1747
ag1750
ag1768
ag1894
ag1924
asS'Chrna2-Cre_OE25'
p1957
(lp1958
g10
ag28
ag67
ag70
ag256
ag271
ag298
ag394
ag523
ag736
ag820
ag907
ag922
ag955
ag1024
ag1069
ag1105
ag1150
ag1174
ag1192
ag1234
ag1246
ag1294
ag1309
ag1324
ag1609
ag1639
ag1759
ag1906
asS'excitatory'
p1959
(lp1960
g4
ag13
ag16
ag34
ag37
ag40
ag43
ag46
ag55
ag61
ag76
ag82
ag85
ag88
ag91
ag94
ag100
ag106
ag109
ag112
ag115
ag118
ag121
ag133
ag136
ag139
ag145
ag151
ag154
ag157
ag160
ag163
ag166
ag175
ag184
ag190
ag199
ag202
ag208
ag214
ag217
ag220
ag223
ag229
ag241
ag244
ag247
ag253
ag259
ag265
ag268
ag274
ag277
ag280
ag286
ag289
ag292
ag301
ag304
ag310
ag313
ag316
ag319
ag325
ag331
ag340
ag343
ag352
ag361
ag370
ag376
ag379
ag382
ag385
ag388
ag391
ag397
ag403
ag406
ag409
ag415
ag424
ag427
ag433
ag436
ag439
ag442
ag445
ag448
ag454
ag457
ag460
ag463
ag466
ag469
ag472
ag475
ag487
ag493
ag499
ag505
ag508
ag529
ag532
ag535
ag538
ag547
ag559
ag562
ag565
ag577
ag580
ag583
ag595
ag607
ag610
ag616
ag619
ag628
ag631
ag637
ag640
ag643
ag646
ag649
ag652
ag655
ag658
ag664
ag667
ag670
ag673
ag685
ag691
ag694
ag706
ag709
ag718
ag724
ag727
ag733
ag739
ag742
ag751
ag760
ag763
ag769
ag784
ag787
ag790
ag793
ag796
ag799
ag802
ag811
ag817
ag823
ag829
ag832
ag835
ag844
ag847
ag850
ag856
ag859
ag865
ag868
ag871
ag874
ag877
ag880
ag889
ag892
ag895
ag898
ag901
ag904
ag910
ag925
ag928
ag934
ag937
ag940
ag952
ag958
ag964
ag967
ag970
ag973
ag976
ag982
ag985
ag994
ag1006
ag1018
ag1021
ag1030
ag1039
ag1042
ag1045
ag1048
ag1054
ag1057
ag1060
ag1063
ag1066
ag1072
ag1078
ag1081
ag1084
ag1093
ag1096
ag1099
ag1108
ag1114
ag1117
ag1120
ag1123
ag1126
ag1141
ag1144
ag1159
ag1162
ag1171
ag1177
ag1180
ag1183
ag1186
ag1195
ag1201
ag1204
ag1213
ag1216
ag1228
ag1240
ag1243
ag1249
ag1255
ag1264
ag1267
ag1270
ag1276
ag1282
ag1285
ag1291
ag1306
ag1312
ag1318
ag1321
ag1330
ag1339
ag1342
ag1345
ag1351
ag1357
ag1360
ag1363
ag1375
ag1384
ag1390
ag1399
ag1408
ag1411
ag1414
ag1429
ag1435
ag1441
ag1450
ag1453
ag1456
ag1459
ag1465
ag1471
ag1474
ag1480
ag1483
ag1486
ag1495
ag1504
ag1507
ag1513
ag1516
ag1519
ag1528
ag1540
ag1546
ag1549
ag1552
ag1555
ag1558
ag1564
ag1567
ag1570
ag1573
ag1576
ag1582
ag1585
ag1588
ag1591
ag1594
ag1597
ag1600
ag1606
ag1612
ag1618
ag1624
ag1627
ag1630
ag1636
ag1642
ag1651
ag1660
ag1663
ag1666
ag1672
ag1678
ag1681
ag1684
ag1687
ag1708
ag1714
ag1723
ag1726
ag1735
ag1738
ag1744
ag1747
ag1750
ag1756
ag1762
ag1765
ag1768
ag1777
ag1789
ag1801
ag1810
ag1813
ag1816
ag1819
ag1822
ag1825
ag1828
ag1831
ag1837
ag1840
ag1843
ag1849
ag1852
ag1855
ag1861
ag1873
ag1876
ag1879
ag1885
ag1894
ag1900
ag1903
ag1909
ag1912
ag1924
ag1930
ag1933
asS'Pvalb-IRES-Cre'
p1961
(lp1962
g1
ag127
ag142
ag148
ag193
ag226
ag235
ag250
ag295
ag328
ag346
ag421
ag541
ag571
ag574
ag592
ag598
ag601
ag625
ag682
ag766
ag778
ag838
ag883
ag886
ag991
ag1009
ag1027
ag1132
ag1147
ag1165
ag1198
ag1219
ag1279
ag1300
ag1315
ag1348
ag1354
ag1369
ag1387
ag1402
ag1405
ag1426
ag1444
ag1462
ag1543
ag1561
ag1579
ag1633
ag1729
ag1753
ag1795
ag1915
asS'Ndnf-IRES2-dgCre'
p1963
(lp1964
g25
ag97
ag373
ag418
ag481
ag502
ag679
ag814
ag943
ag997
ag1012
ag1153
ag1804
ag1867
ag1918
asS'Nkx2-1-CreERT2'
p1965
(lp1966
g49
ag58
ag64
ag103
ag172
ag178
ag337
ag514
ag553
ag604
ag700
ag712
ag916
ag979
ag1075
ag1111
ag1231
ag1489
ag1498
ag1654
ag1657
ag1858
ag1897
asS'Htr3a-Cre_NO152'
p1967
(lp1968
g7
ag52
ag79
ag130
ag169
ag181
ag187
ag205
ag262
ag283
ag367
ag451
ag544
ag550
ag586
ag622
ag676
ag688
ag697
ag703
ag715
ag730
ag754
ag826
ag919
ag931
ag949
ag988
ag1003
ag1033
ag1036
ag1102
ag1138
ag1168
ag1189
ag1207
ag1222
ag1225
ag1258
ag1297
ag1303
ag1327
ag1366
ag1381
ag1420
ag1432
ag1477
ag1522
ag1525
ag1531
ag1534
ag1621
ag1696
ag1711
ag1732
ag1771
ag1774
ag1798
ag1834
ag1864
ag1882
ag1888
asS'Chat-IRES-Cre-neo'
p1969
(lp1970
g73
ag322
ag412
ag484
ag520
ag556
ag613
ag808
ag1090
ag1288
ag1396
ag1423
ag1447
ag1603
ag1645
ag1675
ag1699
ag1870
asS'Rorb-IRES2-Cre-D'
p1971
(lp1972
g40
ag91
ag100
ag139
ag151
ag166
ag184
ag202
ag223
ag253
ag280
ag292
ag301
ag316
ag331
ag343
ag361
ag403
ag427
ag433
ag439
ag448
ag460
ag499
ag508
ag532
ag538
ag547
ag595
ag607
ag610
ag619
ag652
ag727
ag742
ag760
ag784
ag793
ag880
ag925
ag934
ag940
ag976
ag994
ag1006
ag1039
ag1060
ag1066
ag1120
ag1141
ag1162
ag1171
ag1177
ag1195
ag1213
ag1228
ag1276
ag1291
ag1321
ag1330
ag1342
ag1363
ag1384
ag1411
ag1450
ag1453
ag1519
ag1540
ag1546
ag1549
ag1552
ag1573
ag1576
ag1591
ag1594
ag1606
ag1651
ag1672
ag1678
ag1735
ag1756
ag1777
ag1801
ag1819
ag1849
ag1873
ag1900
ag1909
as(dp1973
g1937
(dp1974
S'LIF'
p1975
(dp1976
S'mean'
p1977
cnumpy.core.multiarray
scalar
p1978
(cnumpy
dtype
p1979
(S'f8'
p1980
I0
I1
tp1981
Rp1982
(I3
S'<'
p1983
NNNI-1
I-1
I0
tp1984
bS'\x96\x84\xd79\x04\xb6P@'
p1985
tp1986
Rp1987
sS'median'
p1988
g1978
(g1982
S'"S]\xe7:\xedP@'
p1989
tp1990
Rp1991
sS'quartiles'
p1992
(lp1993
g1978
(g1982
S'\x03e\xe6woaI@'
p1994
tp1995
Rp1996
ag1978
(g1982
S'U\xd2Ak\x8a\x08T@'
p1997
tp1998
Rp1999
asS'n'
p2000
I47
ssS'LIFRASC_LIFRASCAT'
p2001
(dp2002
S'p_value'
p2003
g1978
(g1982
S'\xa9g\xc1H\xe0\x14P?'
p2004
tp2005
Rp2006
sS'bonferroni_p'
p2007
g1978
(g1982
S'\xdf\x15\xff\xeb\xfc\xde\xc7?'
p2008
tp2009
Rp2010
sS'Benjamini_Hochberg_p'
p2011
g1978
(g1982
S'\xe5\x0c3\xd6\xb2-o?'
p2012
tp2013
Rp2014
sg2000
I14
ssS'LIFRASC'
p2015
(dp2016
g1977
g1978
(g1982
S'\xb3\xc9(\xeb\x9e\xcbQ@'
p2017
tp2018
Rp2019
sg1988
g1978
(g1982
S'\x13\xfc\xc6\xfe\xf5\xa7R@'
p2020
tp2021
Rp2022
sg1992
(lp2023
g1978
(g1982
S'\xfd\x88\xd5\x1d\x86\xb3H@'
p2024
tp2025
Rp2026
ag1978
(g1982
S'\xc4\xdf\xb0{qdU@'
p2027
tp2028
Rp2029
asg2000
I14
ssS'LIFR_LIFASC'
p2030
(dp2031
g2003
g1978
(g1982
S'S\x11\xaa-D[\xe7?'
p2032
tp2033
Rp2034
sg2007
g1978
(g1982
S'\xdc8\xe4\x99\xbcUa@'
p2035
tp2036
Rp2037
sg2011
g1978
(g1982
S'u\x17\xc3\r>\x1e\xe8?'
p2038
tp2039
Rp2040
sg2000
I14
ssS'LIFR'
p2041
(dp2042
g1977
g1978
(g1982
S'\x8c\xa9\xe9\xaf\xac\xf9P@'
p2043
tp2044
Rp2045
sg1988
g1978
(g1982
S'TW\x94\xff\x14\x9cP@'
p2046
tp2047
Rp2048
sg1992
(lp2049
g1978
(g1982
S'%\xc9u\x9a7\xd2N@'
p2050
tp2051
Rp2052
ag1978
(g1982
S'\x12\xbco\xb1\xbc\x10S@'
p2053
tp2054
Rp2055
asg2000
I14
ssS'LIFASC_LIFRASCAT'
p2056
(dp2057
g2003
g1978
(g1982
S'\xc2\xb97\xcbzZu?'
p2058
tp2059
Rp2060
sg2007
g1978
(g1982
S'\xbc\xb7\xa6EN\xb2\xef?'
p2061
tp2062
Rp2063
sg2011
g1978
(g1982
S'\x90,4X\x8d\x19\x90?'
p2064
tp2065
Rp2066
sg2000
I14
ssS'LIF_LIFASC'
p2067
(dp2068
g2003
g1978
(g1982
S'RY%\xf4\x8de\xe2?'
p2069
tp2070
Rp2071
sg2007
g1978
(g1982
S'\x96pg\xb6\xbeN[@'
p2072
tp2073
Rp2074
sg2011
g1978
(g1982
S'z\tu\xa7\x9e\x8f\xe4?'
p2075
tp2076
Rp2077
sg2000
I47
ssS'LIFASC_LIFRASC'
p2078
(dp2079
g2003
g1978
(g1982
S'\xd1\xd7\xf5\x9a\x8cv\x9a?'
p2080
tp2081
Rp2082
sg2007
g1978
(g1982
S'-v\x02[\xfc\xa3\x13@'
p2083
tp2084
Rp2085
sg2011
g1978
(g1982
S'1jA\r\x7f\xe5\xac?'
p2086
tp2087
Rp2088
sg2000
I14
ssS'LIF_LIFRASCAT'
p2089
(dp2090
g2003
g1978
(g1982
S'\x89\x8e$\xf8&\x03\x93?'
p2091
tp2092
Rp2093
sg2007
g1978
(g1982
S'\x93CV\xd8\xad8\x0c@'
p2094
tp2095
Rp2096
sg2011
g1978
(g1982
S'Bi\xabF\xbe\x93\xa6?'
p2097
tp2098
Rp2099
sg2000
I14
ssS'LIFR_LIFRASC'
p2100
(dp2101
g2003
g1978
(g1982
S')_\xa0\xbbD\xc1\xbf?'
p2102
tp2103
Rp2104
sg2007
g1978
(g1982
S'\xa0\x06A\x03q\x917@'
p2105
tp2106
Rp2107
sg2011
g1978
(g1982
S'O\x94\x1c\x89\x9e4\xc7?'
p2108
tp2109
Rp2110
sg2000
I14
ssS'LIFRASCAT'
p2111
(dp2112
g1977
g1978
(g1982
S'\x9a9[\xf7\x8fqR@'
p2113
tp2114
Rp2115
sg1988
g1978
(g1982
S'\xc2i\xe9\xbbo\x11S@'
p2116
tp2117
Rp2118
sg1992
(lp2119
g1978
(g1982
S'\xdcX\x8d\xb3\xac\x80L@'
p2120
tp2121
Rp2122
ag1978
(g1982
S'0W:p\x02\x7fU@'
p2123
tp2124
Rp2125
asg2000
I14
ssS'LIFR_LIFRASCAT'
p2126
(dp2127
g2003
g1978
(g1982
S'\x94\x87\x0c\x81!\x0e\x9f?'
p2128
tp2129
Rp2130
sg2007
g1978
(g1982
S'\xa0L\xc7\xdd|\x0c\x17@'
p2131
tp2132
Rp2133
sg2011
g1978
(g1982
S'U\xe5o\xf7\x19\xb9\xaf?'
p2134
tp2135
Rp2136
sg2000
I14
ssS'LIFASC'
p2137
(dp2138
g1977
g1978
(g1982
S'0\xb7\xb9h\x85\x98P@'
p2139
tp2140
Rp2141
sg1988
g1978
(g1982
S'>\x08\xeb\x02\x0b\x87Q@'
p2142
tp2143
Rp2144
sg1992
(lp2145
g1978
(g1982
S'\x1f0\x8f\xf8\x07#G@'
p2146
tp2147
Rp2148
ag1978
(g1982
S'\xc1\x1a\x1d\x96\xd4iU@'
p2149
tp2150
Rp2151
asg2000
I47
ssS'LIF_LIFRASC'
p2152
(dp2153
g2003
g1978
(g1982
S'\x8fw\x9ej\x06\x03\xbc?'
p2154
tp2155
Rp2156
sg2007
g1978
(g1982
S'\xbc\x9c!\xc3>\xca4@'
p2157
tp2158
Rp2159
sg2011
g1978
(g1982
S"\x06%D\x11'\xf4\xc4?"
p2160
tp2161
Rp2162
sg2000
I14
ssS'LIF_LIFR'
p2163
(dp2164
g2003
g1978
(g1982
S'\xc5\xad\xaf\xd0BP\xe0?'
p2165
tp2166
Rp2167
sg2007
g1978
(g1982
S'\xf0\xc5\xc4-#7X@'
p2168
tp2169
Rp2170
sg2011
g1978
(g1982
S'\xdboVFo\x8f\xe2?'
p2171
tp2172
Rp2173
sg2000
I14
sssg1965
(dp2174
g1975
(dp2175
g1977
g1978
(g1982
S'\xc6\xe1\x94\xe3enS@'
p2176
tp2177
Rp2178
sg1988
g1978
(g1982
S'\xc3\x99\xeeM\x03\xbdR@'
p2179
tp2180
Rp2181
sg1992
(lp2182
g1978
(g1982
S'\x15f#(\xf4\xc6M@'
p2183
tp2184
Rp2185
ag1978
(g1982
S'{j\xae\x1f\xe5[X@'
p2186
tp2187
Rp2188
asg2000
I23
ssg2001
(dp2189
g2003
g1978
(g1982
S'\x9b\xf5\x9f\x9c\xab4\xe3?'
p2190
tp2191
Rp2192
sg2007
g1978
(g1982
S'\x92p}\xbc.\x82\\@'
p2193
tp2194
Rp2195
sg2011
g1978
(g1982
S'\xedL\x8e)\xc7\xf8\xe4?'
p2196
tp2197
Rp2198
sg2000
I6
ssg2015
(dp2199
g1977
g1978
(g1982
S'\xc9\xdan_U\xc4T@'
p2200
tp2201
Rp2202
sg1988
g1978
(g1982
S'\x1ct\xdc\xeb\x10\xb7T@'
p2203
tp2204
Rp2205
sg1992
(lp2206
g1978
(g1982
S'FMa\x9c\\\x0cQ@'
p2207
tp2208
Rp2209
ag1978
(g1982
S'\xf2\xd7\xf8\x13\x11`X@'
p2210
tp2211
Rp2212
asg2000
I6
ssg2030
(dp2213
g2003
g1978
(g1982
S'\x8fp\xd5\xc7\x10T\xed?'
p2214
tp2215
Rp2216
sg2007
g1978
(g1982
S'\x8aiPtd\xc4e@'
p2217
tp2218
Rp2219
sg2011
g1978
(g1982
S'\xedy<G\xf0\xa3\xed?'
p2220
tp2221
Rp2222
sg2000
I6
ssg2041
(dp2223
g1977
g1978
(g1982
S'\xc1S\xc3\x19\xff\xc6R@'
p2224
tp2225
Rp2226
sg1988
g1978
(g1982
S'$\xee\xa0MJ,Q@'
p2227
tp2228
Rp2229
sg1992
(lp2230
g1978
(g1982
S'\xd5\xa8G\xadS7N@'
p2231
tp2232
Rp2233
ag1978
(g1982
S',X&\xa9\xd7\x0bX@'
p2234
tp2235
Rp2236
asg2000
I6
ssg2056
(dp2237
g2003
g1978
(g1982
S'\x94\x7fWKr_\x9c?'
p2238
tp2239
Rp2240
sg2007
g1978
(g1982
S'\xb0\xf0\xea\xd3\xd6\x0e\x15@'
p2241
tp2242
Rp2243
sg2011
g1978
(g1982
S'\x00\\\xdc\xa4\xf8\xf2\xad?'
p2244
tp2245
Rp2246
sg2000
I6
ssg2067
(dp2247
g2003
g1978
(g1982
S'\x0e\x89\xc4}b)\xe6?'
p2248
tp2249
Rp2250
sg2007
g1978
(g1982
S'\xb8\xddW\x19\xb7r`@'
p2251
tp2252
Rp2253
sg2011
g1978
(g1982
S'\xac\r\xde\xa7\xc3"\xe7?'
p2254
tp2255
Rp2256
sg2000
I23
ssg2078
(dp2257
g2003
g1978
(g1982
S'\x94\x7fWKr_\x9c?'
p2258
tp2259
Rp2260
sg2007
g1978
(g1982
S'\xb0\xf0\xea\xd3\xd6\x0e\x15@'
p2261
tp2262
Rp2263
sg2011
g1978
(g1982
S'\xa3\xba\x82\x05\xb8\x9e\xad?'
p2264
tp2265
Rp2266
sg2000
I6
ssg2089
(dp2267
g2003
g1978
(g1982
S'\xaf7\x93\x96\xab\xc1\xa7?'
p2268
tp2269
Rp2270
sg2007
g1978
(g1982
S'TC\xc1Y\xbd\xa1!@'
p2271
tp2272
Rp2273
sg2011
g1978
(g1982
S'\x19\x04d3_\xb3\xb5?'
p2274
tp2275
Rp2276
sg2000
I6
ssg2100
(dp2277
g2003
g1978
(g1982
S'\xaf7\x93\x96\xab\xc1\xa7?'
p2278
tp2279
Rp2280
sg2007
g1978
(g1982
S'TC\xc1Y\xbd\xa1!@'
p2281
tp2282
Rp2283
sg2011
g1978
(g1982
S'\x86l\x1a\xbaN\xe9\xb5?'
p2284
tp2285
Rp2286
sg2000
I6
ssg2111
(dp2287
g1977
g1978
(g1982
S'N\xb5\x9b\x13\xa1\xbfT@'
p2288
tp2289
Rp2290
sg1988
g1978
(g1982
S'\xc9\xc3\x838\xdb\xb0T@'
p2291
tp2292
Rp2293
sg1992
(lp2294
g1978
(g1982
S'\xed\xc2J\xd5\xb5\x1bQ@'
p2295
tp2296
Rp2297
ag1978
(g1982
S'j\x16$\xa3Q]X@'
p2298
tp2299
Rp2300
asg2000
I6
ssg2126
(dp2301
g2003
g1978
(g1982
S'\xaf7\x93\x96\xab\xc1\xa7?'
p2302
tp2303
Rp2304
sg2007
g1978
(g1982
S'TC\xc1Y\xbd\xa1!@'
p2305
tp2306
Rp2307
sg2011
g1978
(g1982
S'\xec\xc2.\xfdL \xb6?'
p2308
tp2309
Rp2310
sg2000
I6
ssg2137
(dp2311
g1977
g1978
(g1982
S'\xc9\xd2hB\xe0\xa7S@'
p2312
tp2313
Rp2314
sg1988
g1978
(g1982
S'\xb3\x1a\xaa\xdb\xd4qS@'
p2315
tp2316
Rp2317
sg1992
(lp2318
g1978
(g1982
S'\xe49z@\x05\x13M@'
p2319
tp2320
Rp2321
ag1978
(g1982
S'*\x93\x17\xfd\x95\xd2W@'
p2322
tp2323
Rp2324
asg2000
I23
ssg2152
(dp2325
g2003
g1978
(g1982
S'\xaf7\x93\x96\xab\xc1\xa7?'
p2326
tp2327
Rp2328
sg2007
g1978
(g1982
S'TC\xc1Y\xbd\xa1!@'
p2329
tp2330
Rp2331
sg2011
g1978
(g1982
S'\x08\x1bK\x07bX\xb6?'
p2332
tp2333
Rp2334
sg2000
I6
ssg2163
(dp2335
g2003
g1978
(g1982
S'\xbcZv\xf5\xcf\x1b\xd6?'
p2336
tp2337
Rp2338
sg2007
g1978
(g1982
S'X\xd7-X\xa4hP@'
p2339
tp2340
Rp2341
sg2011
g1978
(g1982
S'5\x0c\x88\xa6\xe2F\xdb?'
p2342
tp2343
Rp2344
sg2000
I6
sssg1939
(dp2345
g1975
(dp2346
g1977
g1978
(g1982
S'\xe0\x92\xe2s\xc3,R@'
p2347
tp2348
Rp2349
sg1988
g1978
(g1982
S'\xbc|\x07XB\xafR@'
p2350
tp2351
Rp2352
sg1992
(lp2353
g1978
(g1982
S'\x1a$\xbe\xf1\xec\xdbD@'
p2354
tp2355
Rp2356
ag1978
(g1982
S'-\xe6\x89~^\xe7W@'
p2357
tp2358
Rp2359
asg2000
I283
ssg2001
(dp2360
g2003
g1978
(g1982
S'\xeb\x10Q\xc1\x90;B?'
p2361
tp2362
Rp2363
sg2007
g1978
(g1982
S'\x1dU\xf4\xdej\x10\xbb?'
p2364
tp2365
Rp2366
sg2011
g1978
(g1982
S'ke\x89T\xcb\x9ed?'
p2367
tp2368
Rp2369
sg2000
I110
ssg2015
(dp2370
g1977
g1978
(g1982
S'\xe4\x82/u\x7f+T@'
p2371
tp2372
Rp2373
sg1988
g1978
(g1982
S'\xea\xcaZ\xbc\xcb\xd1T@'
p2374
tp2375
Rp2376
sg1992
(lp2377
g1978
(g1982
S'w\xff\xafi\xe8\x0bJ@'
p2378
tp2379
Rp2380
ag1978
(g1982
S'S\xe1\x0b\xfe\xc6^X@'
p2381
tp2382
Rp2383
asg2000
I110
ssg2030
(dp2384
g2003
g1978
(g1982
S'\xc8\xcdQ\xc8\x9fho>'
p2385
tp2386
Rp2387
sg2007
g1978
(g1982
S'\xba\xb6\xac\x96\xa6O\xe7>'
p2388
tp2389
Rp2390
sg2011
g1978
(g1982
S'.\x92\xf0\xde\x1e\xa6\xa2>'
p2391
tp2392
Rp2393
sg2000
I110
ssg2041
(dp2394
g1977
g1978
(g1982
S'\x85\xdd#&\x9f\xffQ@'
p2395
tp2396
Rp2397
sg1988
g1978
(g1982
S'\xb5\xbe\x04aldR@'
p2398
tp2399
Rp2400
sg1992
(lp2401
g1978
(g1982
S'T\xe3\x91,\xe3\xbfF@'
p2402
tp2403
Rp2404
ag1978
(g1982
S'\x88\xb9)\xaf tW@'
p2405
tp2406
Rp2407
asg2000
I110
ssg2056
(dp2408
g2003
g1978
(g1982
S'cM \x07\x1b&;>'
p2409
tp2410
Rp2411
sg2007
g1978
(g1982
S'o\xf9I\x0fH&\xb4>'
p2412
tp2413
Rp2414
sg2011
g1978
(g1982
S'o\xf9I\x0fH&t>'
p2415
tp2416
Rp2417
sg2000
I110
ssg2067
(dp2418
g2003
g1978
(g1982
S'\x99s\x03\x16\r\xf1\xfe<'
p2419
tp2420
Rp2421
sg2007
g1978
(g1982
S'\xcc\x8fV\xb6\xe7\xf6v='
p2422
tp2423
Rp2424
sg2011
g1978
(g1982
S'W\xa4\xd0\xab\xbf>J='
p2425
tp2426
Rp2427
sg2000
I283
ssg2078
(dp2428
g2003
g1978
(g1982
S'\xf8R\x085\x89\xb7\xd0>'
p2429
tp2430
Rp2431
sg2007
g1978
(g1982
S'([\xb8\xaao\xd0H?'
p2432
tp2433
Rp2434
sg2011
g1978
(g1982
S'p\xe7z\x1c\xf5\x8a\x00?'
p2435
tp2436
Rp2437
sg2000
I110
ssg2089
(dp2438
g2003
g1978
(g1982
S'\xf7\xf7\x9d\xd7\xc8t\x82='
p2439
tp2440
Rp2441
sg2007
g1978
(g1982
S'\x13|\x0e Ze\xfb='
p2442
tp2443
Rp2444
sg2011
g1978
(g1982
S'\xf7B\xf3\xa2\x9e\xec\xc3='
p2445
tp2446
Rp2447
sg2000
I110
ssg2100
(dp2448
g2003
g1978
(g1982
S'\xd4+\n\xd9\x94\xe9\xb7='
p2449
tp2450
Rp2451
sg2007
g1978
(g1982
S'\x87\x8c\x15y\\\xbf1>'
p2452
tp2453
Rp2454
sg2011
g1978
(g1982
S'\t\xe8AF\xd4\xd7\xf5='
p2455
tp2456
Rp2457
sg2000
I110
ssg2111
(dp2458
g1977
g1978
(g1982
S'}Z\xba\xed\x99kT@'
p2459
tp2460
Rp2461
sg1988
g1978
(g1982
S'\xea(s\x02\x8f\x03U@'
p2462
tp2463
Rp2464
sg1992
(lp2465
g1978
(g1982
S'F\x10m\xbd\xb0%J@'
p2466
tp2467
Rp2468
ag1978
(g1982
S'6\tC\x9e\x8dPX@'
p2469
tp2470
Rp2471
asg2000
I110
ssg2126
(dp2472
g2003
g1978
(g1982
S'#\xd6F;\x05\xc2V='
p2473
tp2474
Rp2475
sg2007
g1978
(g1982
S'\xee\x92\xfe\xe1\xff\xe3\xd0='
p2476
tp2477
Rp2478
sg2011
g1978
(g1982
S'J\x1ed6f\x06\x9b='
p2479
tp2480
Rp2481
sg2000
I110
ssg2137
(dp2482
g1977
g1978
(g1982
S'f\x97\xd2\n\x89*S@'
p2483
tp2484
Rp2485
sg1988
g1978
(g1982
S';\x1e\xd6}\xc4)T@'
p2486
tp2487
Rp2488
sg1992
(lp2489
g1978
(g1982
S'\xbe|.\x95&HE@'
p2490
tp2491
Rp2492
ag1978
(g1982
S'\xb8\x08\x95}WLX@'
p2493
tp2494
Rp2495
asg2000
I283
ssg2152
(dp2496
g2003
g1978
(g1982
S'w*\x0e\xb4\xfc\x10\xc3='
p2497
tp2498
Rp2499
sg2007
g1978
(g1982
S'\t\x07E\x1b7M<>'
p2500
tp2501
Rp2502
sg2011
g1978
(g1982
S'\x05\x04L}\x1f,\x00>'
p2503
tp2504
Rp2505
sg2000
I110
ssg2163
(dp2506
g2003
g1978
(g1982
S'\xb0\x1e\x13(\xd5\x037?'
p2507
tp2508
Rp2509
sg2007
g1978
(g1982
S'\xc70\xbe3\xd8\x14\xb1?'
p2510
tp2511
Rp2512
sg2011
g1978
(g1982
S'r\xb4\x96\x1f\x8dT[?'
p2513
tp2514
Rp2515
sg2000
I110
sssg1941
(dp2516
g1975
(dp2517
g1977
g1978
(g1982
S'\xddq\x99\xdd\x91sQ@'
p2518
tp2519
Rp2520
sg1988
g1978
(g1982
S'\xcdz\xb5\xf1_\xa0Q@'
p2521
tp2522
Rp2523
sg1992
(lp2524
g1978
(g1982
S'H(\x03\xf5x\x8eM@'
p2525
tp2526
Rp2527
ag1978
(g1982
S'\xcaI$\xd2\xae\x8aT@'
p2528
tp2529
Rp2530
asg2000
I56
ssg2001
(dp2531
g2003
g1978
(g1982
S'\xc1\xbd\x9bK\xd8\xd5\xbd?'
p2532
tp2533
Rp2534
sg2007
g1978
(g1982
S'\xd5\x96\x1d\x88\xb6$6@'
p2535
tp2536
Rp2537
sg2011
g1978
(g1982
S'-T!\xfe\xc4\xf8\xc5?'
p2538
tp2539
Rp2540
sg2000
I19
ssg2015
(dp2541
g1977
g1978
(g1982
S'Y\x97\xdb\xe9\x96\x8aR@'
p2542
tp2543
Rp2544
sg1988
g1978
(g1982
S'o\\=\x92\x06\xedR@'
p2545
tp2546
Rp2547
sg1992
(lp2548
g1978
(g1982
S'6?\xed\xcb@\x10L@'
p2549
tp2550
Rp2551
ag1978
(g1982
S'-L\x93\xd2\xba\xefU@'
p2552
tp2553
Rp2554
asg2000
I19
ssg2030
(dp2555
g2003
g1978
(g1982
S'h\xd2V\t\x98R\xc9?'
p2556
tp2557
Rp2558
sg2007
g1978
(g1982
S')p\xee\xd6L\xcbB@'
p2559
tp2560
Rp2561
sg2011
g1978
(g1982
S'f7\x8e\xbe\x8cN\xd1?'
p2562
tp2563
Rp2564
sg2000
I19
ssg2041
(dp2565
g1977
g1978
(g1982
S'H\x0baX\x88pP@'
p2566
tp2567
Rp2568
sg1988
g1978
(g1982
S'z\x9e:\t\x15\xd1P@'
p2569
tp2570
Rp2571
sg1992
(lp2572
g1978
(g1982
S'\xcbU\xd2\x844\xb7J@'
p2573
tp2574
Rp2575
ag1978
(g1982
S'\x01BnD{\xc1R@'
p2576
tp2577
Rp2578
asg2000
I19
ssg2056
(dp2579
g2003
g1978
(g1982
S'\x1b\xfb\x07\xe6w^>?'
p2580
tp2581
Rp2582
sg2007
g1978
(g1982
S'^\xec\xb9\xfc\x1c\x8a\xb6?'
p2583
tp2584
Rp2585
sg2011
g1978
(g1982
S'\xad\xf0?\xc5\x80\x97a?'
p2586
tp2587
Rp2588
sg2000
I19
ssg2067
(dp2589
g2003
g1978
(g1982
S'~\xf9\x8c\xed\x01\x1b\xd1?'
p2590
tp2591
Rp2592
sg2007
g1978
(g1982
S'WB\x9d\xdc\x16dI@'
p2593
tp2594
Rp2595
sg2011
g1978
(g1982
S'\xc7u\xb7[\xb5B\xd6?'
p2596
tp2597
Rp2598
sg2000
I56
ssg2078
(dp2599
g2003
g1978
(g1982
S'\xfba\xda\x0e]b6?'
p2600
tp2601
Rp2602
sg2007
g1978
(g1982
S'\xb8\x14\x06\x11\x01\x9d\xb0?'
p2603
tp2604
Rp2605
sg2011
g1978
(g1982
S'\xd2B\x8d\xf4IC[?'
p2606
tp2607
Rp2608
sg2000
I19
ssg2089
(dp2609
g2003
g1978
(g1982
S'5\xb8]\xd9\xf8\xd9_?'
p2610
tp2611
Rp2612
sg2007
g1978
(g1982
S'\xb7\x8eS\xb1\xc6\xa3\xd7?'
p2613
tp2614
Rp2615
sg2011
g1978
(g1982
S'gb\x97v\xa3\xa4y?'
p2616
tp2617
Rp2618
sg2000
I19
ssg2100
(dp2619
g2003
g1978
(g1982
S'R\xd1\xedk9\x01\x92?'
p2620
tp2621
Rp2622
sg2007
g1978
(g1982
S'\xb6\x025<\xd1\xb9\n@'
p2623
tp2624
Rp2625
sg2011
g1978
(g1982
S'\xb4\xaa4\xf3\xbc\xa6\xa5?'
p2626
tp2627
Rp2628
sg2000
I19
ssg2111
(dp2629
g1977
g1978
(g1982
S'\x03:\x94\xc7E\xe4R@'
p2630
tp2631
Rp2632
sg1988
g1978
(g1982
S'\xb0\x0f\x83\xec\xc6\xebR@'
p2633
tp2634
Rp2635
sg1992
(lp2636
g1978
(g1982
S'\x8d\x16v\xa5\x82\xffM@'
p2637
tp2638
Rp2639
ag1978
(g1982
S'Oz\xa0(\x12\xe9U@'
p2640
tp2641
Rp2642
asg2000
I19
ssg2126
(dp2643
g2003
g1978
(g1982
S'\xca\xf5F\xf3\xd6\x16k?'
p2644
tp2645
Rp2646
sg2007
g1978
(g1982
S'l\xaa\x8e\x88\xf3\x1a\xe4?'
p2647
tp2648
Rp2649
sg2011
g1978
(g1982
S'\xc2\n\xacc\xfb\xc0\x84?'
p2650
tp2651
Rp2652
sg2000
I19
ssg2137
(dp2653
g1977
g1978
(g1982
S'\x9a\x021\xdc\xf4\x87Q@'
p2654
tp2655
Rp2656
sg1988
g1978
(g1982
S'\x06\xa8\xfb\xb0\x1aLR@'
p2657
tp2658
Rp2659
sg1992
(lp2660
g1978
(g1982
S'\xae\xd7,\xb0\xe4pE@'
p2661
tp2662
Rp2663
ag1978
(g1982
S'\xec\xad\xa1*\x92\x94U@'
p2664
tp2665
Rp2666
asg2000
I56
ssg2152
(dp2667
g2003
g1978
(g1982
S'\xeb\xc3\xfaM\xf2}v?'
p2668
tp2669
Rp2670
sg2007
g1978
(g1982
S'h\x1d\xe0\xd5y\xb1\xf0?'
p2671
tp2672
Rp2673
sg2011
g1978
(g1982
S'h\x1d\xe0\xd5y\xb1\x90?'
p2674
tp2675
Rp2676
sg2000
I19
ssg2163
(dp2677
g2003
g1978
(g1982
S"\xa8\xcf9\x0b'\xeb\xc5?"
p2678
tp2679
Rp2680
sg2007
g1978
(g1982
S'\x1f\xe8T\xfa\x86D@@'
p2681
tp2682
Rp2683
sg2011
g1978
(g1982
S'\xfe\xc3\x901\x1c\x9f\xce?'
p2684
tp2685
Rp2686
sg2000
I19
sssg1943
(dp2687
g1975
(dp2688
g1977
g1978
(g1982
S'\x1d\xae\x1at\xbdBM@'
p2689
tp2690
Rp2691
sg1988
g1978
(g1982
S'D\x80\xadmc.N@'
p2692
tp2693
Rp2694
sg1992
(lp2695
g1978
(g1982
S'\xf3\x14\xc9\x11koA@'
p2696
tp2697
Rp2698
ag1978
(g1982
S'`\xee\x0f\x19l\x8eR@'
p2699
tp2700
Rp2701
asg2000
I20
ssg2001
(dp2702
g2003
g1978
(g1982
S'\xf9D&\x84=\x96\xe3?'
p2703
tp2704
Rp2705
sg2007
g1978
(g1982
S'b\xce(P\x03\x13]@'
p2706
tp2707
Rp2708
sg2011
g1978
(g1982
S'\xab\xa5\x8ajG\xe8\xe4?'
p2709
tp2710
Rp2711
sg2000
I7
ssg2015
(dp2712
g1977
g1978
(g1982
S'y)\x85\xeaydL@'
p2713
tp2714
Rp2715
sg1988
g1978
(g1982
S'G\xd4w\x94\x1d8J@'
p2716
tp2717
Rp2718
sg1992
(lp2719
g1978
(g1982
S'\x84\xe2\xe9\xcdD\x01C@'
p2720
tp2721
Rp2722
ag1978
(g1982
S'Z\xa3Q\xf4\xfc\x97S@'
p2723
tp2724
Rp2725
asg2000
I7
ssg2030
(dp2726
g2003
g1978
(g1982
S'\x00\xe2>\x0c$\xdf\xd3?'
p2727
tp2728
Rp2729
sg2007
g1978
(g1982
S'xW-\x829\x7fM@'
p2730
tp2731
Rp2732
sg2011
g1978
(g1982
S'"\xfc\xa41\xb6+\xd9?'
p2733
tp2734
Rp2735
sg2000
I7
ssg2041
(dp2736
g1977
g1978
(g1982
S'1\xb2RfT-K@'
p2737
tp2738
Rp2739
sg1988
g1978
(g1982
S'\xdae,I|\xfdK@'
p2740
tp2741
Rp2742
sg1992
(lp2743
g1978
(g1982
S'\xf6\xc5\xca\x1c*\x15F@'
p2744
tp2745
Rp2746
ag1978
(g1982
S'\x85\xa7=\x14L\x82P@'
p2747
tp2748
Rp2749
asg2000
I7
ssg2056
(dp2750
g2003
g1978
(g1982
S'B+\x9c\x90\xff\xee\xdf?'
p2751
tp2752
Rp2753
sg2007
g1978
(g1982
S'\x1b\xe8S\xada\xb3W@'
p2754
tp2755
Rp2756
sg2011
g1978
(g1982
S'\x17\xf5\xc8\xce\x91\x9c\xe2?'
p2757
tp2758
Rp2759
sg2000
I7
ssg2067
(dp2760
g2003
g1978
(g1982
S'\xc1\x98\x8eJ)\xb8\xa2?'
p2761
tp2762
Rp2763
sg2007
g1978
(g1982
S'\xbe\xaa\xabJ]\xc9\x1b@'
p2764
tp2765
Rp2766
sg2011
g1978
(g1982
S'\x0ee\x02ev%\xb2?'
p2767
tp2768
Rp2769
sg2000
I20
ssg2078
(dp2770
g2003
g1978
(g1982
S'\x15\x8a=\x1f\x89h\xc0?'
p2771
tp2772
Rp2773
sg2007
g1978
(g1982
S'\xf7X_\x8a+[8@'
p2774
tp2775
Rp2776
sg2011
g1978
(g1982
S'\xeb\x81\xceBa\xcc\xc7?'
p2777
tp2778
Rp2779
sg2000
I7
ssg2089
(dp2780
g2003
g1978
(g1982
S'\x1c}\n=\xf5L\xce?'
p2781
tp2782
Rp2783
sg2007
g1978
(g1982
S'\xdb\xc8M\x03\x1e}F@'
p2784
tp2785
Rp2786
sg2011
g1978
(g1982
S'\xf8QV\x16%\xda\xd3?'
p2787
tp2788
Rp2789
sg2000
I7
ssg2100
(dp2790
g2003
g1978
(g1982
S'\xc2\xb0O\xde\xb6\x87\xe7?'
p2791
tp2792
Rp2793
sg2007
g1978
(g1982
S'0%\xff\xb8\xb9va@'
p2794
tp2795
Rp2796
sg2011
g1978
(g1982
S'\xce\xf3\x9du\x84*\xe8?'
p2797
tp2798
Rp2799
sg2000
I7
ssg2111
(dp2800
g1977
g1978
(g1982
S'\x90Y\x9b\xf9i\xbaL@'
p2801
tp2802
Rp2803
sg1988
g1978
(g1982
S'E\x98Y1\xd7\xd0O@'
p2804
tp2805
Rp2806
sg1992
(lp2807
g1978
(g1982
S'\x18\x88\xeb\xbdn\xd4@@'
p2808
tp2809
Rp2810
ag1978
(g1982
S'nA\xa8\xa0\x91UT@'
p2811
tp2812
Rp2813
asg2000
I7
ssg2126
(dp2814
g2003
g1978
(g1982
S'.\nR\xac<y\xd9?'
p2815
tp2816
Rp2817
sg2007
g1978
(g1982
S'\x8e\xe3\xe4\x07\xfb\xe7R@'
p2818
tp2819
Rp2820
sg2011
g1978
(g1982
S'\xcf\x9cwA\x88\x06\xdf?'
p2821
tp2822
Rp2823
sg2000
I7
ssg2137
(dp2824
g1977
g1978
(g1982
S'\xd2\xdd\xb3\x8f\xf1\x07K@'
p2825
tp2826
Rp2827
sg1988
g1978
(g1982
S'WAEW\x83rJ@'
p2828
tp2829
Rp2830
sg1992
(lp2831
g1978
(g1982
S'j\xe4n\x18+\xc6@@'
p2832
tp2833
Rp2834
ag1978
(g1982
S'\x80\xc9:;\xbd\x7fS@'
p2835
tp2836
Rp2837
asg2000
I20
ssg2152
(dp2838
g2003
g1978
(g1982
S'.\nR\xac<y\xd9?'
p2839
tp2840
Rp2841
sg2007
g1978
(g1982
S'\x8e\xe3\xe4\x07\xfb\xe7R@'
p2842
tp2843
Rp2844
sg2011
g1978
(g1982
S'\xc0\xf8\x07`\xf1\xd3\xde?'
p2845
tp2846
Rp2847
sg2000
I7
ssg2163
(dp2848
g2003
g1978
(g1982
S'\xf9D&\x84=\x96\xe3?'
p2849
tp2850
Rp2851
sg2007
g1978
(g1982
S'b\xce(P\x03\x13]@'
p2852
tp2853
Rp2854
sg2011
g1978
(g1982
S'\x8e\x7f\xbf\x90\x84\x06\xe5?'
p2855
tp2856
Rp2857
sg2000
I7
sssg1945
(dp2858
g1975
(dp2859
g1977
g1978
(g1982
S'\xf8XO\xbd#\xc6P@'
p2860
tp2861
Rp2862
sg1988
g1978
(g1982
S'\xf7=f=\x0fQQ@'
p2863
tp2864
Rp2865
sg1992
(lp2866
g1978
(g1982
S'\xad\xa1\xe0o\xa7\xd9D@'
p2867
tp2868
Rp2869
ag1978
(g1982
S'}s\xf1N/PU@'
p2870
tp2871
Rp2872
asg2000
I19
ssg2001
(dp2873
g2003
g1978
(g1982
S'@\x1e\xbdz\xb8\xa9\xc4?'
p2874
tp2875
Rp2876
sg2007
g1978
(g1982
S'\xe7\xb80\xd6\xed\xab>@'
p2877
tp2878
Rp2879
sg2011
g1978
(g1982
S'K\xe2\x91\xa2YL\xcd?'
p2880
tp2881
Rp2882
sg2000
I8
ssg2015
(dp2883
g1977
g1978
(g1982
S'\xb6\x99\xe2\xb5J\xb6R@'
p2884
tp2885
Rp2886
sg1988
g1978
(g1982
S'\x14OB\xfa\xcfGS@'
p2887
tp2888
Rp2889
sg1992
(lp2890
g1978
(g1982
S'\x88\x8a\xf8;4`O@'
p2891
tp2892
Rp2893
ag1978
(g1982
S'F0\x9c\xcc\x02\xa5U@'
p2894
tp2895
Rp2896
asg2000
I8
ssg2030
(dp2897
g2003
g1978
(g1982
S'\x97P((\xc4\xc7\xb7?'
p2898
tp2899
Rp2900
sg2007
g1978
(g1982
S'\xd0\xeb\xcd\x95C\xa61@'
p2901
tp2902
Rp2903
sg2011
g1978
(g1982
S'\xc8\xf2\x99\xf0*%\xc3?'
p2904
tp2905
Rp2906
sg2000
I8
ssg2041
(dp2907
g1977
g1978
(g1982
S'\t\x85\xad\x15\x05dP@'
p2908
tp2909
Rp2910
sg1988
g1978
(g1982
S'\xa3\xe4\x05\xbaF\xefP@'
p2911
tp2912
Rp2913
sg1992
(lp2914
g1978
(g1982
S'\x84\x0cd\xb6}fI@'
p2915
tp2916
Rp2917
ag1978
(g1982
S'\xc4\xa0!|\xc3*R@'
p2918
tp2919
Rp2920
asg2000
I8
ssg2056
(dp2921
g2003
g1978
(g1982
S'\xe9rV\xe7\xcf\xa9\x99?'
p2922
tp2923
Rp2924
sg2007
g1978
(g1982
S'I)\xb2M\x08\x0c\x13@'
p2925
tp2926
Rp2927
sg2011
g1978
(g1982
S'\x96+\t\xc1YY\xac?'
p2928
tp2929
Rp2930
sg2000
I8
ssg2067
(dp2931
g2003
g1978
(g1982
S'\xa8\xc0J\x0f\xedoy?'
p2932
tp2933
Rp2934
sg2007
g1978
(g1982
S'\xfdzY\xf1\x11\xe1\xf2?'
p2935
tp2936
Rp2937
sg2011
g1978
(g1982
S'ge\x05\x15\xb7\x96\x92?'
p2938
tp2939
Rp2940
sg2000
I19
ssg2078
(dp2941
g2003
g1978
(g1982
S'*\xb1wo5F\xa2?'
p2942
tp2943
Rp2944
sg2007
g1978
(g1982
S'\xfa\xaauQ7 \x1b@'
p2945
tp2946
Rp2947
sg2011
g1978
(g1982
S'*\xb1wo5F\xb2?'
p2948
tp2949
Rp2950
sg2000
I8
ssg2089
(dp2951
g2003
g1978
(g1982
S'\xff\x929[\xf7\xff\x87?'
p2952
tp2953
Rp2954
sg2007
g1978
(g1982
S'\x19\xbb\xb4\x95\xf9\xcf\x01@'
p2955
tp2956
Rp2957
sg2011
g1978
(g1982
S'`\xe9C\x8f\x92;\x9f?'
p2958
tp2959
Rp2960
sg2000
I8
ssg2100
(dp2961
g2003
g1978
(g1982
S'*\xb1wo5F\xa2?'
p2962
tp2963
Rp2964
sg2007
g1978
(g1982
S'\xfa\xaauQ7 \x1b@'
p2965
tp2966
Rp2967
sg2011
g1978
(g1982
S'\xfcqN6z\x15\xb2?'
p2968
tp2969
Rp2970
sg2000
I8
ssg2111
(dp2971
g1977
g1978
(g1982
S'\xf4\xb3\xd1\xa2\xcb\xeeR@'
p2972
tp2973
Rp2974
sg1988
g1978
(g1982
S'\xe3\t\x9e\xb3C\xf6S@'
p2975
tp2976
Rp2977
sg1992
(lp2978
g1978
(g1982
S'`\x10\x05L_\xc3O@'
p2979
tp2980
Rp2981
ag1978
(g1982
S'\xfc\x80@[M\xabU@'
p2982
tp2983
Rp2984
asg2000
I8
ssg2126
(dp2985
g2003
g1978
(g1982
S'*\xb1wo5F\xa2?'
p2986
tp2987
Rp2988
sg2007
g1978
(g1982
S'\xfa\xaauQ7 \x1b@'
p2989
tp2990
Rp2991
sg2011
g1978
(g1982
S'\xff\x1e\xbf5\xc0\xe5\xb1?'
p2992
tp2993
Rp2994
sg2000
I8
ssg2137
(dp2995
g1977
g1978
(g1982
S'\xaf\x06\xe0\x01s\xf2Q@'
p2996
tp2997
Rp2998
sg1988
g1978
(g1982
S'\xea^\x1b\xc5\xf2\x0cS@'
p2999
tp3000
Rp3001
sg1992
(lp3002
g1978
(g1982
S'L\xc3\xdbJ:RJ@'
p3003
tp3004
Rp3005
ag1978
(g1982
S'10gs\xabUV@'
p3006
tp3007
Rp3008
asg2000
I19
ssg2152
(dp3009
g2003
g1978
(g1982
S'\xfb\xa3\xbd\x16\x8b\xb4\x91?'
p3010
tp3011
Rp3012
sg2007
g1978
(g1982
S'i\x7f\xc1u\xfeG\n@'
p3013
tp3014
Rp3015
sg2011
g1978
(g1982
S'\xd3\xeb\x14\xc3g\x90\xa5?'
p3016
tp3017
Rp3018
sg2000
I8
ssg2163
(dp3019
g2003
g1978
(g1982
S'\x0c\xc1\xad\x99\xb3i\xe2?'
p3020
tp3021
Rp3022
sg2007
g1978
(g1982
S'\x8e\xea\x1d\x98\xe6T[@'
p3023
tp3024
Rp3025
sg2011
g1978
(g1982
S'\xc3\x13.\xf4\xfeV\xe4?'
p3026
tp3027
Rp3028
sg2000
I8
sssg1947
(dp3029
g1975
(dp3030
g1977
g1978
(g1982
S"\xa0'\x83\xdf\x03\xf3M@"
p3031
tp3032
Rp3033
sg1988
g1978
(g1982
S'\xceA`\xc5\xc3\x13O@'
p3034
tp3035
Rp3036
sg1992
(lp3037
g1978
(g1982
S'\xb0\x96!\x1fH\xcfC@'
p3038
tp3039
Rp3040
ag1978
(g1982
S'\xb0\x9a\xd9\x97\xd2\x9bR@'
p3041
tp3042
Rp3043
asg2000
I22
ssg2001
(dp3044
g2003
g1978
(g1982
S'\x0c\xc1\xad\x99\xb3i\xe2?'
p3045
tp3046
Rp3047
sg2007
g1978
(g1982
S'\x8e\xea\x1d\x98\xe6T[@'
p3048
tp3049
Rp3050
sg2011
g1978
(g1982
S'\xf1\xf2\xf98ru\xe4?'
p3051
tp3052
Rp3053
sg2000
I8
ssg2015
(dp3054
g1977
g1978
(g1982
S'\xceh+\x82\x84yM@'
p3055
tp3056
Rp3057
sg1988
g1978
(g1982
S'd\x1b\xd2\xbfhxO@'
p3058
tp3059
Rp3060
sg1992
(lp3061
g1978
(g1982
S'z2a\xd2\xde\xffB@'
p3062
tp3063
Rp3064
ag1978
(g1982
S'\x02P\x16\x14V6R@'
p3065
tp3066
Rp3067
asg2000
I8
ssg2030
(dp3068
g2003
g1978
(g1982
S'\xf7\xc6\xd5\xb4\x8e\x96\xb1?'
p3069
tp3070
Rp3071
sg2007
g1978
(g1982
S'WSm\xd4{\x1b*@'
p3072
tp3073
Rp3074
sg2011
g1978
(g1982
S'\x88\xf1|`D\xd6\xbd?'
p3075
tp3076
Rp3077
sg2000
I8
ssg2041
(dp3078
g1977
g1978
(g1982
S'R\xa6\x0b\xbd\x8e\x96O@'
p3079
tp3080
Rp3081
sg1988
g1978
(g1982
S'b*\x1d\x8dT\xe0O@'
p3082
tp3083
Rp3084
sg1992
(lp3085
g1978
(g1982
S'p\xa7Y\x0bb,J@'
p3086
tp3087
Rp3088
ag1978
(g1982
S'\xbcz\xcc,\xac\x9dQ@'
p3089
tp3090
Rp3091
asg2000
I8
ssg2056
(dp3092
g2003
g1978
(g1982
S'\xff\x929[\xf7\xff\x87?'
p3093
tp3094
Rp3095
sg2007
g1978
(g1982
S'\x19\xbb\xb4\x95\xf9\xcf\x01@'
p3096
tp3097
Rp3098
sg2011
g1978
(g1982
S'\x10i\x08C\x9f\xaa\x9f?'
p3099
tp3100
Rp3101
sg2000
I8
ssg2067
(dp3102
g2003
g1978
(g1982
S'\x8a\xc9\xb3Py\xc8\x9a?'
p3103
tp3104
Rp3105
sg2007
g1978
(g1982
S'\x94o\xe5\t\xca\xe0\x13@'
p3106
tp3107
Rp3108
sg2011
g1978
(g1982
S'c\xffd\x0e\xe0\xe9\xac?'
p3109
tp3110
Rp3111
sg2000
I22
ssg2078
(dp3112
g2003
g1978
(g1982
S'\xe9rV\xe7\xcf\xa9\x99?'
p3113
tp3114
Rp3115
sg2007
g1978
(g1982
S'I)\xb2M\x08\x0c\x13@'
p3116
tp3117
Rp3118
sg2011
g1978
(g1982
S'\xe6\xf8\xba/\xbb\xae\xac?'
p3119
tp3120
Rp3121
sg2000
I8
ssg2089
(dp3122
g2003
g1978
(g1982
S'\xe3W\xbc\xca\xe1\x94\xe5?'
p3123
tp3124
Rp3125
sg2007
g1978
(g1982
S':\xc9w\x94\x7f\x04`@'
p3126
tp3127
Rp3128
sg2011
g1978
(g1982
S'ScW\x92\x99\xa7\xe6?'
p3129
tp3130
Rp3131
sg2000
I8
ssg2100
(dp3132
g2003
g1978
(g1982
S'\x0c\xd3\x97.\xee\x91\xca?'
p3133
tp3134
Rp3135
sg2007
g1978
(g1982
S'\xa3\xae\x94\xc6N\xb8C@'
p3136
tp3137
Rp3138
sg2011
g1978
(g1982
S'[\x98\x0b{\x98\x07\xd2?'
p3139
tp3140
Rp3141
sg2000
I8
ssg2111
(dp3142
g1977
g1978
(g1982
S'\xac\x00Z\xa70\xecM@'
p3143
tp3144
Rp3145
sg1988
g1978
(g1982
S'Ni\x02f ;P@'
p3146
tp3147
Rp3148
sg1992
(lp3149
g1978
(g1982
S'n\xcf\xa0\xb3|\xbbB@'
p3150
tp3151
Rp3152
ag1978
(g1982
S'\xb8\x11\x92_\xfe\xd2R@'
p3153
tp3154
Rp3155
asg2000
I8
ssg2126
(dp3156
g2003
g1978
(g1982
S'v{\xaa\xbcd\xed\xd4?'
p3157
tp3158
Rp3159
sg2007
g1978
(g1982
S'C\x0f\r\x88a\x10O@'
p3160
tp3161
Rp3162
sg2011
g1978
(g1982
S'\xf3\xbe\x81V\x17U\xda?'
p3163
tp3164
Rp3165
sg2000
I8
ssg2137
(dp3166
g1977
g1978
(g1982
S'\x03\xfd\xb0\xe6\x19<K@'
p3167
tp3168
Rp3169
sg1988
g1978
(g1982
S'. \xf0\xd7\xccDL@'
p3170
tp3171
Rp3172
sg1992
(lp3173
g1978
(g1982
S'\x93"\x1c\x96\xea\xf9A@'
p3174
tp3175
Rp3176
ag1978
(g1982
S'Rz5_/\xb4R@'
p3177
tp3178
Rp3179
asg2000
I22
ssg2152
(dp3180
g2003
g1978
(g1982
S'\x0c\xc1\xad\x99\xb3i\xe2?'
p3181
tp3182
Rp3183
sg2007
g1978
(g1982
S'\x8e\xea\x1d\x98\xe6T[@'
p3184
tp3185
Rp3186
sg2011
g1978
(g1982
S'\x1f:\xc6\xcd\xe58\xe4?'
p3187
tp3188
Rp3189
sg2000
I8
ssg2163
(dp3190
g2003
g1978
(g1982
S'\x9azQy\xf0\xa6\xd9?'
p3191
tp3192
Rp3193
sg2007
g1978
(g1982
S'\xfex\nz\xe6\tS@'
p3194
tp3195
Rp3196
sg2011
g1978
(g1982
S'\x8blu\xcf\xf3\xd8\xde?'
p3197
tp3198
Rp3199
sg2000
I8
sssg1949
(dp3200
g1975
(dp3201
g1977
g1978
(g1982
S'\x86\n\x05O\x99/Q@'
p3202
tp3203
Rp3204
sg1988
g1978
(g1982
S'\x1fy\xbb\xf7\xaa\x8cQ@'
p3205
tp3206
Rp3207
sg1992
(lp3208
g1978
(g1982
S'a\xe39\xd2\x93\nJ@'
p3209
tp3210
Rp3211
ag1978
(g1982
S'$\x88\xac.\xba\x1cT@'
p3212
tp3213
Rp3214
asg2000
I39
ssg2001
(dp3215
g2003
g1978
(g1982
S'\x89\x8e$\xf8&\x03\x93?'
p3216
tp3217
Rp3218
sg2007
g1978
(g1982
S'\x93CV\xd8\xad8\x0c@'
p3219
tp3220
Rp3221
sg2011
g1978
(g1982
S'\x12/\xe2ncL\xa6?'
p3222
tp3223
Rp3224
sg2000
I14
ssg2015
(dp3225
g1977
g1978
(g1982
S'\x0b\xfcrk{\xedS@'
p3226
tp3227
Rp3228
sg1988
g1978
(g1982
S'0\xa3S\x1aq\xfaS@'
p3229
tp3230
Rp3231
sg1992
(lp3232
g1978
(g1982
S'\x15\xbf>\xd1+OQ@'
p3233
tp3234
Rp3235
ag1978
(g1982
S'\x8cH\xd2\xb87\xc4V@'
p3236
tp3237
Rp3238
asg2000
I14
ssg2030
(dp3239
g2003
g1978
(g1982
S'\xb7u3\x03\x1f\x12T?'
p3240
tp3241
Rp3242
sg2007
g1978
(g1982
S'\xbcb\xc0\x08\xe6\xca\xcd?'
p3243
tp3244
Rp3245
sg2011
g1978
(g1982
S'\xf0\xfc\xda\xdfwUq?'
p3246
tp3247
Rp3248
sg2000
I14
ssg2041
(dp3249
g1977
g1978
(g1982
S'\xcf\x06V(\x8a-L@'
p3250
tp3251
Rp3252
sg1988
g1978
(g1982
S'<\xd3\x85\xad{\xd9L@'
p3253
tp3254
Rp3255
sg1992
(lp3256
g1978
(g1982
S'\xb5-z\xd1\x927C@'
p3257
tp3258
Rp3259
ag1978
(g1982
S'\x1a*\xe7\xa8\xed-Q@'
p3260
tp3261
Rp3262
asg2000
I14
ssg2056
(dp3263
g2003
g1978
(g1982
S'\xa9g\xc1H\xe0\x14P?'
p3264
tp3265
Rp3266
sg2007
g1978
(g1982
S'\xdf\x15\xff\xeb\xfc\xde\xc7?'
p3267
tp3268
Rp3269
sg2011
g1978
(g1982
S')\x1dT\xe5\xfb\xd3o?'
p3270
tp3271
Rp3272
sg2000
I14
ssg2067
(dp3273
g2003
g1978
(g1982
S'\xfd\xb5\xe3\x03;\xf85?'
p3274
tp3275
Rp3276
sg2007
g1978
(g1982
S'\x12\x01\xe3\xcc;N\xb0?'
p3277
tp3278
Rp3279
sg2011
g1978
(g1982
S'}\xa3\xdc\xc4Iv[?'
p3280
tp3281
Rp3282
sg2000
I39
ssg2078
(dp3283
g2003
g1978
(g1982
S'\xf2\x08\xea6s\xe1y?'
p3284
tp3285
Rp3286
sg2007
g1978
(g1982
S'\xa4\xb2\xc1\x82S5\xf3?'
p3287
tp3288
Rp3289
sg2011
g1978
(g1982
S'\xa7_\xea\xfaP\xa0\x92?'
p3290
tp3291
Rp3292
sg2000
I14
ssg2089
(dp3293
g2003
g1978
(g1982
S'\x89\xdbYZg\xeb^?'
p3294
tp3295
Rp3296
sg2007
g1978
(g1982
S'\xf0\xb0\x0e\xb5\xb6\xf2\xd6?'
p3297
tp3298
Rp3299
sg2011
g1978
(g1982
S'#b\x07UqRy?'
p3300
tp3301
Rp3302
sg2000
I14
ssg2100
(dp3303
g2003
g1978
(g1982
S'\xb7u3\x03\x1f\x12T?'
p3304
tp3305
Rp3306
sg2007
g1978
(g1982
S'\xbcb\xc0\x08\xe6\xca\xcd?'
p3307
tp3308
Rp3309
sg2011
g1978
(g1982
S'\xb5\xca$N:\x06q?'
p3310
tp3311
Rp3312
sg2000
I14
ssg2111
(dp3313
g1977
g1978
(g1982
S'\x9bAV\xe31\x83T@'
p3314
tp3315
Rp3316
sg1988
g1978
(g1982
S'\xf6\xc5\x8b\x9cb\xcdT@'
p3317
tp3318
Rp3319
sg1992
(lp3320
g1978
(g1982
S'\x9aW.\xd9OMQ@'
p3321
tp3322
Rp3323
ag1978
(g1982
S'jH\x8cH+\xe4V@'
p3324
tp3325
Rp3326
asg2000
I14
ssg2126
(dp3327
g2003
g1978
(g1982
S'\xa9g\xc1H\xe0\x14P?'
p3328
tp3329
Rp3330
sg2007
g1978
(g1982
S'\xdf\x15\xff\xeb\xfc\xde\xc7?'
p3331
tp3332
Rp3333
sg2011
g1978
(g1982
S'\xff\x03\xbe3\xac@p?'
p3334
tp3335
Rp3336
sg2000
I14
ssg2137
(dp3337
g1977
g1978
(g1982
S'\x9a\xd8\x993\t\xceR@'
p3338
tp3339
Rp3340
sg1988
g1978
(g1982
S'\xda_vK8\xdbS@'
p3341
tp3342
Rp3343
sg1992
(lp3344
g1978
(g1982
S'\xdf\xc4\xcc\x93\xf0\xb0K@'
p3345
tp3346
Rp3347
ag1978
(g1982
S'\x91\xc1\\\xca\n\x19V@'
p3348
tp3349
Rp3350
asg2000
I39
ssg2152
(dp3351
g2003
g1978
(g1982
S'\xdd\xdc(\xdc\x11A\x7f?'
p3352
tp3353
Rp3354
sg2007
g1978
(g1982
S'\xecSfAK2\xf7?'
p3355
tp3356
Rp3357
sg2011
g1978
(g1982
S'\xcb\xc2\xf6sf(\x96?'
p3358
tp3359
Rp3360
sg2000
I14
ssg2163
(dp3361
g2003
g1978
(g1982
S'\xa9g\xc1H\xe0\x14P?'
p3362
tp3363
Rp3364
sg2007
g1978
(g1982
S'\xdf\x15\xff\xeb\xfc\xde\xc7?'
p3365
tp3366
Rp3367
sg2011
g1978
(g1982
S'!]\xff?\x1f\x9bp?'
p3368
tp3369
Rp3370
sg2000
I14
sssg1951
(dp3371
g1975
(dp3372
g1977
g1978
(g1982
S'z\x98K.y\xd9Q@'
p3373
tp3374
Rp3375
sg1988
g1978
(g1982
S'\x9f\x07\x88\xa5\xb5\xc5R@'
p3376
tp3377
Rp3378
sg1992
(lp3379
g1978
(g1982
S'\xa8~l\xf9a\x16@@'
p3380
tp3381
Rp3382
ag1978
(g1982
S'@_0\x98\xc7^W@'
p3383
tp3384
Rp3385
asg2000
I64
ssg2001
(dp3386
g2003
g1978
(g1982
S'P\xec)\x1f\x151\xd7?'
p3387
tp3388
Rp3389
sg2007
g1978
(g1982
S'c\x1d!\xadm6Q@'
p3390
tp3391
Rp3392
sg2011
g1978
(g1982
S'\x0f\xae\\\xcb\xb6m\xdc?'
p3393
tp3394
Rp3395
sg2000
I28
ssg2015
(dp3396
g1977
g1978
(g1982
S'R\xc8\xe1\xf2a1S@'
p3397
tp3398
Rp3399
sg1988
g1978
(g1982
S'\xb8\x9c\xc0K!LS@'
p3400
tp3401
Rp3402
sg1992
(lp3403
g1978
(g1982
S'\xf2M\xea\xb8\xd3\xdaI@'
p3404
tp3405
Rp3406
ag1978
(g1982
S'Kg\xfb\xbdN\xf4W@'
p3407
tp3408
Rp3409
asg2000
I28
ssg2030
(dp3410
g2003
g1978
(g1982
S'f\xc7\xc3\x14\xdbI\xe0?'
p3411
tp3412
Rp3413
sg2007
g1978
(g1982
S'\xfb\x9b\xd22\xa1-X@'
p3414
tp3415
Rp3416
sg2011
g1978
(g1982
S'\x12\x03\x02\xfc\xb9\xa4\xe2?'
p3417
tp3418
Rp3419
sg2000
I28
ssg2041
(dp3420
g1977
g1978
(g1982
S'\xd2\xcb}\x94\x9b\xd3R@'
p3421
tp3422
Rp3423
sg1988
g1978
(g1982
S'\xe77)\xfb2\xdcR@'
p3424
tp3425
Rp3426
sg1992
(lp3427
g1978
(g1982
S'\x06\x98\xc6x"\x03G@'
p3428
tp3429
Rp3430
ag1978
(g1982
S'\xd8\x8c\x04\xf7\xce\xb9V@'
p3431
tp3432
Rp3433
asg2000
I28
ssg2056
(dp3434
g2003
g1978
(g1982
S'[!\xf2z]\x18\xab?'
p3435
tp3436
Rp3437
sg2007
g1978
(g1982
S'\xc2\xb4?a\x15\x1c$@'
p3438
tp3439
Rp3440
sg2011
g1978
(g1982
S'!\xb9\xe7}t\x0e\xb8?'
p3441
tp3442
Rp3443
sg2000
I28
ssg2067
(dp3444
g2003
g1978
(g1982
S'\xce\xc0AC\xb0\xe8\xad?'
p3445
tp3446
Rp3447
sg2007
g1978
(g1982
S'\x19\xcd\xea\xd1\xb22&@'
p3448
tp3449
Rp3450
sg2011
g1978
(g1982
S'\xbd\xacq\xb9B\x11\xba?'
p3451
tp3452
Rp3453
sg2000
I64
ssg2078
(dp3454
g2003
g1978
(g1982
S'\x19\x15\x04[\xd1\x8f\xc2?'
p3455
tp3456
Rp3457
sg2007
g1978
(g1982
S'Q\x0f\x1a\xc3z\x8d;@'
p3458
tp3459
Rp3460
sg2011
g1978
(g1982
S'\xeaL8\xdc\xbc\xb7\xca?'
p3461
tp3462
Rp3463
sg2000
I28
ssg2089
(dp3464
g2003
g1978
(g1982
S'\xaeH\n\x06G\xbc\xde?'
p3465
tp3466
Rp3467
sg2007
g1978
(g1982
S'\xf1\xa1{\xb6\xbc\xcfV@'
p3468
tp3469
Rp3470
sg2011
g1978
(g1982
S'U\xe3\x02\xbc\xc5"\xe2?'
p3471
tp3472
Rp3473
sg2000
I28
ssg2100
(dp3474
g2003
g1978
(g1982
S'\xf8\xd6Hg\x97:\xdb?'
p3475
tp3476
Rp3477
sg2007
g1978
(g1982
S'\x8c\x0f\xa8^|5T@'
p3478
tp3479
Rp3480
sg2011
g1978
(g1982
S'\xa3?S\xe5\xc9*\xe0?'
p3481
tp3482
Rp3483
sg2000
I28
ssg2111
(dp3484
g1977
g1978
(g1982
S'>\x07gMjHS@'
p3485
tp3486
Rp3487
sg1988
g1978
(g1982
S'\x13\x7f\xc4o\xce\x83S@'
p3488
tp3489
Rp3490
sg1992
(lp3491
g1978
(g1982
S'n\xce\xb9\x85\xe8\xa4H@'
p3492
tp3493
Rp3494
ag1978
(g1982
S'~VfH\xb1\xeeW@'
p3495
tp3496
Rp3497
asg2000
I28
ssg2126
(dp3498
g2003
g1978
(g1982
S'd\x84\xbe\x80\xbb\xde\xc8?'
p3499
tp3500
Rp3501
sg2007
g1978
(g1982
S'Bf\x8d)OuB@'
p3502
tp3503
Rp3504
sg2011
g1978
(g1982
S"2'\x83@\xe5\x1e\xd1?"
p3505
tp3506
Rp3507
sg2000
I28
ssg2137
(dp3508
g1977
g1978
(g1982
S'\x05MB:\x9aBR@'
p3509
tp3510
Rp3511
sg1988
g1978
(g1982
S'\x12\xa5J\x86\xb6RS@'
p3512
tp3513
Rp3514
sg1992
(lp3515
g1978
(g1982
S'p\x98\x91R\xb7\x85B@'
p3516
tp3517
Rp3518
ag1978
(g1982
S'\xab \xbbh\x9c\xf4W@'
p3519
tp3520
Rp3521
asg2000
I64
ssg2152
(dp3522
g2003
g1978
(g1982
S'\xa8\xc3\x8cZ\xfa\xc2\xe4?'
p3523
tp3524
Rp3525
sg2007
g1978
(g1982
S'm\xf2h\x9ek\xd1^@'
p3526
tp3527
Rp3528
sg2011
g1978
(g1982
S'j\x07\xb1&A\xea\xe5?'
p3529
tp3530
Rp3531
sg2000
I28
ssg2163
(dp3532
g2003
g1978
(g1982
S'\xd2\x93\xcf<\xaf\xf5\xd4?'
p3533
tp3534
Rp3535
sg2007
g1978
(g1982
S'l\x1fD\x1e\xb0\x1cO@'
p3536
tp3537
Rp3538
sg2011
g1978
(g1982
S'\xc7x\x03\x0c\x1b3\xda?'
p3539
tp3540
Rp3541
sg2000
I28
sssg1953
(dp3542
g1975
(dp3543
g1977
g1978
(g1982
S'r\x9fe\xd6~_Q@'
p3544
tp3545
Rp3546
sg1988
g1978
(g1982
S'\x9b\xf8\x95\xaeW\x8aQ@'
p3547
tp3548
Rp3549
sg1992
(lp3550
g1978
(g1982
S')\x83y\x1b\x9e\xceH@'
p3551
tp3552
Rp3553
ag1978
(g1982
S'\xa4N\x82\xb6\x05DU@'
p3554
tp3555
Rp3556
asg2000
I53
ssg2001
(dp3557
g2003
g1978
(g1982
S'\xabzKa5\xddX?'
p3558
tp3559
Rp3560
sg2007
g1978
(g1982
S'\x0b\x056\x9e-t\xd2?'
p3561
tp3562
Rp3563
sg2011
g1978
(g1982
S'\xe4\x90i&W\xb8t?'
p3564
tp3565
Rp3566
sg2000
I27
ssg2015
(dp3567
g1977
g1978
(g1982
S'\xfe\x97\xecm~bR@'
p3568
tp3569
Rp3570
sg1988
g1978
(g1982
S"r\x93'h\x02\xf5R@"
p3571
tp3572
Rp3573
sg1992
(lp3574
g1978
(g1982
S'\xe04\x1a\xb7\xb7\xe5J@'
p3575
tp3576
Rp3577
ag1978
(g1982
S'\xbb\xea\x17_B\xccU@'
p3578
tp3579
Rp3580
asg2000
I27
ssg2030
(dp3581
g2003
g1978
(g1982
S'\xb4\x10\xb9\x95\xfe\x96\xd2?'
p3582
tp3583
Rp3584
sg2007
g1978
(g1982
S'\xcb\xb4>\xe6!\x98K@'
p3585
tp3586
Rp3587
sg2011
g1978
(g1982
S'\t\xe0x5\x84\xb4\xd7?'
p3588
tp3589
Rp3590
sg2000
I27
ssg2041
(dp3591
g1977
g1978
(g1982
S'\xf1h\xd3ol\xefO@'
p3592
tp3593
Rp3594
sg1988
g1978
(g1982
S'Z\xc2E<\x19\x07P@'
p3595
tp3596
Rp3597
sg1992
(lp3598
g1978
(g1982
S'B\x10\x99\x94?FJ@'
p3599
tp3600
Rp3601
ag1978
(g1982
S'\xb6I&\x98SqR@'
p3602
tp3603
Rp3604
asg2000
I27
ssg2056
(dp3605
g2003
g1978
(g1982
S'\xfe}$\xfa\xf8\x81\xe0>'
p3606
tp3607
Rp3608
sg2007
g1978
(g1982
S'\x05+N\x93\xed\x80X?'
p3609
tp3610
Rp3611
sg2011
g1978
(g1982
S'\xcd\x91\x82\xd4\x94\n\r?'
p3612
tp3613
Rp3614
sg2000
I27
ssg2067
(dp3615
g2003
g1978
(g1982
S'\x83;\x10Q\xf0-\xa2?'
p3616
tp3617
Rp3618
sg2007
g1978
(g1982
S'V\x18T\xb80\xfc\x1a@'
p3619
tp3620
Rp3621
sg2011
g1978
(g1982
S'V\xf5\x8a\xdfr_\xb2?'
p3622
tp3623
Rp3624
sg2000
I53
ssg2078
(dp3625
g2003
g1978
(g1982
S"\xae\xeb\xc8\x93'\xbe\xec>"
p3626
tp3627
Rp3628
sg2007
g1978
(g1982
S'\xeb\x1e\xaf_!Ue?'
p3629
tp3630
Rp3631
sg2011
g1978
(g1982
S'\xe2\xfe\x9b\xbdK\x05\x16?'
p3632
tp3633
Rp3634
sg2000
I27
ssg2089
(dp3635
g2003
g1978
(g1982
S'\r\xbf\x0f\xdb\x99;a?'
p3636
tp3637
Rp3638
sg2007
g1978
(g1982
S'\x97_+ax\x94\xd9?'
p3639
tp3640
Rp3641
sg2011
g1978
(g1982
S'\xd4C.\xf0\x08I{?'
p3642
tp3643
Rp3644
sg2000
I27
ssg2100
(dp3645
g2003
g1978
(g1982
S'\xc2\x13\xf0P8\xfbM?'
p3646
tp3647
Rp3648
sg2007
g1978
(g1982
S'\xaa.\x12\xccs@\xc6?'
p3649
tp3650
Rp3651
sg2011
g1978
(g1982
S'\xf7\xdb\x19\x00\x9f\xa5o?'
p3652
tp3653
Rp3654
sg2000
I27
ssg2111
(dp3655
g1977
g1978
(g1982
S'\xecN\xf7T\x0b\xd0R@'
p3656
tp3657
Rp3658
sg1988
g1978
(g1982
S'&H~}\x9a^S@'
p3659
tp3660
Rp3661
sg1992
(lp3662
g1978
(g1982
S'\xc3\xea\x0e\xb2\x16\x1cM@'
p3663
tp3664
Rp3665
ag1978
(g1982
S'\x14\x18$\n\x9d\x04V@'
p3666
tp3667
Rp3668
asg2000
I27
ssg2126
(dp3669
g2003
g1978
(g1982
S'\x12\x9c#\x15Z~!?'
p3670
tp3671
Rp3672
sg2007
g1978
(g1982
S'\xab\xdb`\xb7\x8d\xf7\x99?'
p3673
tp3674
Rp3675
sg2011
g1978
(g1982
S'\x17\n\x92K<uF?'
p3676
tp3677
Rp3678
sg2000
I27
ssg2137
(dp3679
g1977
g1978
(g1982
S'\xf8\xc8\xbbK\x8f\xacP@'
p3680
tp3681
Rp3682
sg1988
g1978
(g1982
S'~\x9d\xc2\x8cB\x11Q@'
p3683
tp3684
Rp3685
sg1992
(lp3686
g1978
(g1982
S'\xda\xc1\xea\xc8(\xbdE@'
p3687
tp3688
Rp3689
ag1978
(g1982
S'8\x07\xd1\xd4c\x9fU@'
p3690
tp3691
Rp3692
asg2000
I53
ssg2152
(dp3693
g2003
g1978
(g1982
S'\xa1Ct\x1d\xc6\x8a\xad?'
p3694
tp3695
Rp3696
sg2007
g1978
(g1982
S'1J\xdc\t\xff\xec%@'
p3697
tp3698
Rp3699
sg2011
g1978
(g1982
S"'\xe6c\xa3p\xfc\xb9?"
p3700
tp3701
Rp3702
sg2000
I27
ssg2163
(dp3703
g2003
g1978
(g1982
S'p\x11Y5\xf27I?'
p3704
tp3705
Rp3706
sg2007
g1978
(g1982
S'\xf1\x1a\x98\xc3\x85\xb7\xc2?'
p3707
tp3708
Rp3709
sg2011
g1978
(g1982
S'\x96i_\x82\x91\xdbk?'
p3710
tp3711
Rp3712
sg2000
I27
sssg1955
(dp3713
g1975
(dp3714
g1977
g1978
(g1982
S'J\xb8\xfd\xe4\xa4QP@'
p3715
tp3716
Rp3717
sg1988
g1978
(g1982
S'\xb4\x13\x83\x15\x96\xa8P@'
p3718
tp3719
Rp3720
sg1992
(lp3721
g1978
(g1982
S'h\x06=\xce\xcc\xdcH@'
p3722
tp3723
Rp3724
ag1978
(g1982
S'y\xec\xf7\xe2\xb5\xbdS@'
p3725
tp3726
Rp3727
asg2000
I37
ssg2001
(dp3728
g2003
g1978
(g1982
S'\xd6\xd5\xbf\x13\xf0\\\xe3?'
p3729
tp3730
Rp3731
sg2007
g1978
(g1982
S'j\xc1P]\xf4\xbd\\@'
p3732
tp3733
Rp3734
sg2011
g1978
(g1982
S'\xae"\x87t\xd1\x05\xe5?'
p3735
tp3736
Rp3737
sg2000
I16
ssg2015
(dp3738
g1977
g1978
(g1982
S'\xd4\x1a\xf9\x87\x98\xf6P@'
p3739
tp3740
Rp3741
sg1988
g1978
(g1982
S'v\xe5S\x07nlP@'
p3742
tp3743
Rp3744
sg1992
(lp3745
g1978
(g1982
S'V\xf1\x1b6T\xefC@'
p3746
tp3747
Rp3748
ag1978
(g1982
S'\x86v\x84\x88\xc9\x1eV@'
p3749
tp3750
Rp3751
asg2000
I17
ssg2030
(dp3752
g2003
g1978
(g1982
S'\xee\x93\xdd=\x9f\xba\xe0?'
p3753
tp3754
Rp3755
sg2007
g1978
(g1982
S'\x95\xe7\xd4_\x04\xd5X@'
p3756
tp3757
Rp3758
sg2011
g1978
(g1982
S'e\xed\x0f\x0cq\xeb\xe2?'
p3759
tp3760
Rp3761
sg2000
I17
ssg2041
(dp3762
g1977
g1978
(g1982
S'\x8b\x95\xfesz\xccP@'
p3763
tp3764
Rp3765
sg1988
g1978
(g1982
S'?\xa0\xe0%\x97\xf1P@'
p3766
tp3767
Rp3768
sg1992
(lp3769
g1978
(g1982
S'Z\x12\xfb\x1fT9L@'
p3770
tp3771
Rp3772
ag1978
(g1982
S'k\xae\xd7\xcd\n\x04T@'
p3773
tp3774
Rp3775
asg2000
I17
ssg2056
(dp3776
g2003
g1978
(g1982
S'\x06\x99%4(d\xa6?'
p3777
tp3778
Rp3779
sg2007
g1978
(g1982
S'\x92\xe7\xb3\xd6U\x9e @'
p3780
tp3781
Rp3782
sg2011
g1978
(g1982
S'\x92\x84\xf0\x97\x8cE\xb5?'
p3783
tp3784
Rp3785
sg2000
I16
ssg2067
(dp3786
g2003
g1978
(g1982
S"\x89wa\xdf\xfe'\xc3?"
p3787
tp3788
Rp3789
sg2007
g1978
(g1982
S'o\xad\x94S^o<@'
p3790
tp3791
Rp3792
sg2011
g1978
(g1982
S'1\x86\x1d?\xb5]\xcb?'
p3793
tp3794
Rp3795
sg2000
I37
ssg2078
(dp3796
g2003
g1978
(g1982
S'\xc4W\xb5\xc3\x8b\xb1\xc6?'
p3797
tp3798
Rp3799
sg2007
g1978
(g1982
S'#\x97@\xbb\xc5\xd7@@'
p3800
tp3801
Rp3802
sg2011
g1978
(g1982
S'M\xaa\\\xd7\x08y\xcf?'
p3803
tp3804
Rp3805
sg2000
I17
ssg2089
(dp3806
g2003
g1978
(g1982
S'\xeb\x16\x9f\x88\x8c\xe3\xbb?'
p3807
tp3808
Rp3809
sg2007
g1978
(g1982
S'\x02\x13fM\xe2\xb24@'
p3810
tp3811
Rp3812
sg2011
g1978
(g1982
S'O\x13\x80F\xfe\x06\xc5?'
p3813
tp3814
Rp3815
sg2000
I16
ssg2100
(dp3816
g2003
g1978
(g1982
S'\xe2\x12\x9d\xf5;\x1f\xe7?'
p3817
tp3818
Rp3819
sg2007
g1978
(g1982
S'\x04\x94J\x80.)a@'
p3820
tp3821
Rp3822
sg2011
g1978
(g1982
S'\x03\x0e\xc6+\xa7\x01\xe8?'
p3823
tp3824
Rp3825
sg2000
I17
ssg2111
(dp3826
g1977
g1978
(g1982
S'\x16\xa1n\x1d\xa9\tQ@'
p3827
tp3828
Rp3829
sg1988
g1978
(g1982
S'2\xc5\xc7b\xc7\xb2O@'
p3830
tp3831
Rp3832
sg1992
(lp3833
g1978
(g1982
S'v\xf3?\xe2\x7f\x1dH@'
p3834
tp3835
Rp3836
ag1978
(g1982
S'O\x0f\xb3\x17K#V@'
p3837
tp3838
Rp3839
asg2000
I16
ssg2126
(dp3840
g2003
g1978
(g1982
S'\xdaY\xdc\xc1\x1a\x0e\xec?'
p3841
tp3842
Rp3843
sg2007
g1978
(g1982
S'\xb0\x8a\xe1\xdbw\xd2d@'
p3844
tp3845
Rp3846
sg2011
g1978
(g1982
S'\xd4o\x9bPS\x81\xec?'
p3847
tp3848
Rp3849
sg2000
I16
ssg2137
(dp3850
g1977
g1978
(g1982
S'j\x86\x11\xf7\xbd\x1dO@'
p3851
tp3852
Rp3853
sg1988
g1978
(g1982
S'.\xcb\x98`\x88LM@'
p3854
tp3855
Rp3856
sg1992
(lp3857
g1978
(g1982
S'\n\x13\x1e\xb15\x19E@'
p3858
tp3859
Rp3860
ag1978
(g1982
S'\x1c\x90\x1f_\x16AV@'
p3861
tp3862
Rp3863
asg2000
I37
ssg2152
(dp3864
g2003
g1978
(g1982
S'\x00\xaeC\xb0\xa0\xd6\xca?'
p3865
tp3866
Rp3867
sg2007
g1978
(g1982
S'$;\xd2BK\xebC@'
p3868
tp3869
Rp3870
sg2011
g1978
(g1982
S'U\xaf\xf1t%\x15\xd2?'
p3871
tp3872
Rp3873
sg2000
I17
ssg2163
(dp3874
g2003
g1978
(g1982
S'0\x1e|\xe4\xf5\x1a\xcd?'
p3875
tp3876
Rp3877
sg2007
g1978
(g1982
S'h\x1e\x94\x7f\x02\x9aE@'
p3878
tp3879
Rp3880
sg2011
g1978
(g1982
S'k\x88\x8dU\xf0U\xd3?'
p3881
tp3882
Rp3883
sg2000
I17
sssg1957
(dp3884
g1975
(dp3885
g1977
g1978
(g1982
S'\xbf\xbfQN\xdaiP@'
p3886
tp3887
Rp3888
sg1988
g1978
(g1982
S'\x95D\x08\x1c\x9a7P@'
p3889
tp3890
Rp3891
sg1992
(lp3892
g1978
(g1982
S'X\xf5Td\x84tE@'
p3893
tp3894
Rp3895
ag1978
(g1982
S'\x06\x11!2\x1b\x0bV@'
p3896
tp3897
Rp3898
asg2000
I29
ssg2001
(dp3899
g2003
g1978
(g1982
S'\xdcj\t\x9e\x01#\x83?'
p3900
tp3901
Rp3902
sg2007
g1978
(g1982
S'\x9f\xfa\x95f\xf6g\xfc?'
p3903
tp3904
Rp3905
sg2011
g1978
(g1982
S'+Z1\xc4\xa6\xf8\x99?'
p3906
tp3907
Rp3908
sg2000
I10
ssg2015
(dp3909
g1977
g1978
(g1982
S'#\xcb\x87\x8aK\xd6Q@'
p3910
tp3911
Rp3912
sg1988
g1978
(g1982
S'\xf8\xa1v\x13\x1eaQ@'
p3913
tp3914
Rp3915
sg1992
(lp3916
g1978
(g1982
S'\x1c\xfbJK\x9c\xc4J@'
p3917
tp3918
Rp3919
ag1978
(g1982
S'\xf2#\x9f!\xcf\xe7W@'
p3920
tp3921
Rp3922
asg2000
I10
ssg2030
(dp3923
g2003
g1978
(g1982
S'\x11^Q\x80\xd1\xaf\xe4?'
p3924
tp3925
Rp3926
sg2007
g1978
(g1982
S'\xa1\xc7x\xfa\xfa\xb4^@'
p3927
tp3928
Rp3929
sg2011
g1978
(g1982
S'w\x0f\xc3|B\xf5\xe5?'
p3930
tp3931
Rp3932
sg2000
I10
ssg2041
(dp3933
g1977
g1978
(g1982
S'\xb8\x14\xe9G\xaf!Q@'
p3934
tp3935
Rp3936
sg1988
g1978
(g1982
S'\xe6I-\xe6\xf0\xd8P@'
p3937
tp3938
Rp3939
sg1992
(lp3940
g1978
(g1982
S'\xda\x10O\x97\x82\x9dI@'
p3941
tp3942
Rp3943
ag1978
(g1982
S'\n\xa9\xa7%f\rV@'
p3944
tp3945
Rp3946
asg2000
I10
ssg2056
(dp3947
g2003
g1978
(g1982
S'\x13x\xc8\xa3\xa1\xa1\x89?'
p3948
tp3949
Rp3950
sg2007
g1978
(g1982
S'\x1e\xc9\x8e\xf7\xf5\x05\x03@'
p3951
tp3952
Rp3953
sg2011
g1978
(g1982
S'\xb7\xf6\xfe+\xb3;\xa0?'
p3954
tp3955
Rp3956
sg2000
I10
ssg2067
(dp3957
g2003
g1978
(g1982
S'\xeeQ\x92\x8b\xcc\x11\xee?'
p3958
tp3959
Rp3960
sg2007
g1978
(g1982
S'\xcf\x98\x96\xcf5Qf@'
p3961
tp3962
Rp3963
sg2011
g1978
(g1982
S'\xde\x07\x8f1\x87:\xee?'
p3964
tp3965
Rp3966
sg2000
I29
ssg2078
(dp3967
g2003
g1978
(g1982
S'\x98\xc6$yO\x19\x9d?'
p3968
tp3969
Rp3970
sg2007
g1978
(g1982
S'eK\xe9\xfb\xc8\x98\x15@'
p3971
tp3972
Rp3973
sg2011
g1978
(g1982
S'\xfc\x1aq\x059\x0c\xae?'
p3974
tp3975
Rp3976
sg2000
I10
ssg2089
(dp3977
g2003
g1978
(g1982
S'\xff\xee\xbc:\xee\x0f\xb3?'
p3978
tp3979
Rp3980
sg2007
g1978
(g1982
S'\xc3r0\x9f\xa5K,@'
p3981
tp3982
Rp3983
sg2011
g1978
(g1982
S'\xe2\x9d\xc7\xb4\x98\x06\xc0?'
p3984
tp3985
Rp3986
sg2000
I10
ssg2100
(dp3987
g2003
g1978
(g1982
S'\xa7\xcf\xaehu>\xe0?'
p3988
tp3989
Rp3990
sg2007
g1978
(g1982
S'<|cG\xb6\x1cX@'
p3991
tp3992
Rp3993
sg2011
g1978
(g1982
S'T\xc8\xb92\x87\xb4\xe2?'
p3994
tp3995
Rp3996
sg2000
I10
ssg2111
(dp3997
g1977
g1978
(g1982
S'B76Z\xbc\x92R@'
p3998
tp3999
Rp4000
sg1988
g1978
(g1982
S'J\xc3@\x00y9R@'
p4001
tp4002
Rp4003
sg1992
(lp4004
g1978
(g1982
S'N\x11*\xddt=K@'
p4005
tp4006
Rp4007
ag1978
(g1982
S'.\xbf@\x9f\xc3\xf7W@'
p4008
tp4009
Rp4010
asg2000
I10
ssg2126
(dp4011
g2003
g1978
(g1982
S'<6I\x9b\x837\xbd?'
p4012
tp4013
Rp4014
sg2007
g1978
(g1982
S'AV@\xad3\xaf5@'
p4015
tp4016
Rp4017
sg2011
g1978
(g1982
S'AV@\xad3\xaf\xc5?'
p4018
tp4019
Rp4020
sg2000
I10
ssg2137
(dp4021
g1977
g1978
(g1982
S't1\xfa\x0e\x97dP@'
p4022
tp4023
Rp4024
sg1988
g1978
(g1982
S'!\x80\x7f7\xbfuP@'
p4025
tp4026
Rp4027
sg1992
(lp4028
g1978
(g1982
S'p\xb7\x07\xdd\xd9\xb7E@'
p4029
tp4030
Rp4031
ag1978
(g1982
S'\x18G\xb2\xef\x1a\xbeV@'
p4032
tp4033
Rp4034
asg2000
I29
ssg2152
(dp4035
g2003
g1978
(g1982
S'\xe4V\xb8\xccMa\xae?'
p4036
tp4037
Rp4038
sg2007
g1978
(g1982
S'}\xd0\xf0\xbd7\x8c&@'
p4039
tp4040
Rp4041
sg2011
g1978
(g1982
S'h\xbf\xcd0\xc3<\xba?'
p4042
tp4043
Rp4044
sg2000
I10
ssg2163
(dp4045
g2003
g1978
(g1982
S'\xff\xee\xbc:\xee\x0f\xb3?'
p4046
tp4047
Rp4048
sg2007
g1978
(g1982
S'\xc3r0\x9f\xa5K,@'
p4049
tp4050
Rp4051
sg2011
g1978
(g1982
S'\xaa\xe3:\xb77\xc5\xbf?'
p4052
tp4053
Rp4054
sg2000
I10
sssg1959
(dp4055
g1975
(dp4056
g1977
g1978
(g1982
S'\xd7\x95\xdfx\xd1\xb1P@'
p4057
tp4058
Rp4059
sg1988
g1978
(g1982
S'\xf8X\x97\x06Y\x01Q@'
p4060
tp4061
Rp4062
sg1992
(lp4063
g1978
(g1982
S'\x0e\x0b9\xeex\x82G@'
p4064
tp4065
Rp4066
ag1978
(g1982
S'\xe0R\x05l/dT@'
p4067
tp4068
Rp4069
asg2000
I362
ssg2001
(dp4070
g2003
g1978
(g1982
S'\xc3\xb08\x176/k>'
p4071
tp4072
Rp4073
sg2007
g1978
(g1982
S'1\x13<%\n-\xe4>'
p4074
tp4075
Rp4076
sg2011
g1978
(g1982
S'zn\x83\xce\x81\xfd\xa0>'
p4077
tp4078
Rp4079
sg2000
I143
ssg2015
(dp4080
g1977
g1978
(g1982
S"\xca'\xdc\xc3~\x8bQ@"
p4081
tp4082
Rp4083
sg1988
g1978
(g1982
S'\x12W\xb2k\x17\xfdQ@'
p4084
tp4085
Rp4086
sg1992
(lp4087
g1978
(g1982
S'x\xf0\x07\x0e\xbd\x13G@'
p4088
tp4089
Rp4090
ag1978
(g1982
S'S\xdc\xe2\x98_\x00V@'
p4091
tp4092
Rp4093
asg2000
I144
ssg2030
(dp4094
g2003
g1978
(g1982
S'0\\\xdbhA\xe3\xd9?'
p4095
tp4096
Rp4097
sg2007
g1978
(g1982
S'l\xce\xd2\x8b\xaa6S@'
p4098
tp4099
Rp4100
sg2011
g1978
(g1982
S'\xc1\x8c)\xa7\\\xef\xde?'
p4101
tp4102
Rp4103
sg2000
I144
ssg2041
(dp4104
g1977
g1978
(g1982
S'\xda\x98\xbc}N\x19P@'
p4105
tp4106
Rp4107
sg1988
g1978
(g1982
S'\x10\xff\xe8V\nKP@'
p4108
tp4109
Rp4110
sg1992
(lp4111
g1978
(g1982
S'\xcc"]\xe2\x00\xbdH@'
p4112
tp4113
Rp4114
ag1978
(g1982
S'_\x84\xb5\xda5\xcdR@'
p4115
tp4116
Rp4117
asg2000
I144
ssg2056
(dp4118
g2003
g1978
(g1982
S'^9\x99>2\xa9B<'
p4119
tp4120
Rp4121
sg2007
g1978
(g1982
S'(q\xeb\x94&\xb3\xbb<'
p4122
tp4123
Rp4124
sg2011
g1978
(g1982
S'(q\xeb\x94&\xb3\x9b<'
p4125
tp4126
Rp4127
sg2000
I143
ssg2067
(dp4128
g2003
g1978
(g1982
S'l\x91\x85\xeb\xe0\x00\xe0?'
p4129
tp4130
Rp4131
sg2007
g1978
(g1982
S'\xdcC\x9a\xddM\xc1W@'
p4132
tp4133
Rp4134
sg2011
g1978
(g1982
S'\xac`\x91<b\x8a\xe2?'
p4135
tp4136
Rp4137
sg2000
I362
ssg2078
(dp4138
g2003
g1978
(g1982
S'\xe1\xc6\x8e\x16\x8d\xfdT='
p4139
tp4140
Rp4141
sg2007
g1978
(g1982
S'6\xef{m](\xcf='
p4142
tp4143
Rp4144
sg2011
g1978
(g1982
S'\xf7)n(\x1a\xb2\x9b='
p4145
tp4146
Rp4147
sg2000
I144
ssg2089
(dp4148
g2003
g1978
(g1982
S'\x01\x91\xa1\xc4\x06:\x1f>'
p4149
tp4150
Rp4151
sg2007
g1978
(g1982
S'\x9f\xe9\xef\x05\x11-\x97>'
p4152
tp4153
Rp4154
sg2011
g1978
(g1982
S'!\xe8\xff\xb0\x9a\xb8X>'
p4155
tp4156
Rp4157
sg2000
I143
ssg2100
(dp4158
g2003
g1978
(g1982
S'3\xe6\xa5\x00:\xf4\xca>'
p4159
tp4160
Rp4161
sg2007
g1978
(g1982
S'\xda {\x0cC\x01D?'
p4162
tp4163
Rp4164
sg2011
g1978
(g1982
S'\xaa\xd4\xd7\xe4;\xd5\xfb>'
p4165
tp4166
Rp4167
sg2000
I144
ssg2111
(dp4168
g1977
g1978
(g1982
S'\x8f\xf39s]\xebQ@'
p4169
tp4170
Rp4171
sg1988
g1978
(g1982
S'\t\x84!(-\xb2R@'
p4172
tp4173
Rp4174
sg1992
(lp4175
g1978
(g1982
S'E\x8c\xd9)hKG@'
p4176
tp4177
Rp4178
ag1978
(g1982
S'\xa2\xb3\x8f\xa6RGV@'
p4179
tp4180
Rp4181
asg2000
I143
ssg2126
(dp4182
g2003
g1978
(g1982
S'\x9a\xb7\x9b\xf1\xf71J>'
p4183
tp4184
Rp4185
sg2007
g1978
(g1982
S'D\x92Q\x05\x16q\xc3>'
p4186
tp4187
Rp4188
sg2011
g1978
(g1982
S'\xae,\xf3\x92\x13H\x81>'
p4189
tp4190
Rp4191
sg2000
I143
ssg2137
(dp4192
g1977
g1978
(g1982
S'\xafF\x8f\xde\xe7rP@'
p4193
tp4194
Rp4195
sg1988
g1978
(g1982
S'\n\xd0\xa5\\<\xe0P@'
p4196
tp4197
Rp4198
sg1992
(lp4199
g1978
(g1982
S'\x8c&\x01j\xfa\xe4C@'
p4200
tp4201
Rp4202
ag1978
(g1982
S'\xbc\x82a\xab~\xb8U@'
p4203
tp4204
Rp4205
asg2000
I362
ssg2152
(dp4206
g2003
g1978
(g1982
S'\x86\xe8\xd8{\xe0\xec\xe2>'
p4207
tp4208
Rp4209
sg2007
g1978
(g1982
S"'\xf9\xd57\x9d\x17\\?"
p4210
tp4211
Rp4212
sg2011
g1978
(g1982
S'+\xa0\xd1\xff\x92\xff\x0e?'
p4213
tp4214
Rp4215
sg2000
I144
ssg2163
(dp4216
g2003
g1978
(g1982
S'5\x10\xe4\t\x8dCP?'
p4217
tp4218
Rp4219
sg2007
g1978
(g1982
S'\x0f\x88\xaeZE$\xc8?'
p4220
tp4221
Rp4222
sg2011
g1978
(g1982
S'2\x85d,\xbf\xe6n?'
p4223
tp4224
Rp4225
sg2000
I144
sssg1961
(dp4226
g1975
(dp4227
g1977
g1978
(g1982
S'\xe1}\x82X\xf3\x8fT@'
p4228
tp4229
Rp4230
sg1988
g1978
(g1982
S'\t\xfbw\x11\xc2EW@'
p4231
tp4232
Rp4233
sg1992
(lp4234
g1978
(g1982
S'\x0c\xdb\xe8\xa3\x157@@'
p4235
tp4236
Rp4237
ag1978
(g1982
S'\xfc\xfbRP\xac6X@'
p4238
tp4239
Rp4240
asg2000
I53
ssg2001
(dp4241
g2003
g1978
(g1982
S'\x9e\x8a\xa1w#9\xba?'
p4242
tp4243
Rp4244
sg2007
g1978
(g1982
S'\xe1\xe4\xc9Rhv3@'
p4245
tp4246
Rp4247
sg2011
g1978
(g1982
S'?\x05\x90n:\xef\xc4?'
p4248
tp4249
Rp4250
sg2000
I17
ssg2015
(dp4251
g1977
g1978
(g1982
S'\xe5\xc1\xb9\\\xc5\x8fV@'
p4252
tp4253
Rp4254
sg1988
g1978
(g1982
S'\x17\xd2\xc8\xa8^:X@'
p4255
tp4256
Rp4257
sg1992
(lp4258
g1978
(g1982
S'\x1b_\x9f\x05Z\x97J@'
p4259
tp4260
Rp4261
ag1978
(g1982
S'~vL\x0be\x9eX@'
p4262
tp4263
Rp4264
asg2000
I17
ssg2030
(dp4265
g2003
g1978
(g1982
S'\xcf\xa3\xb81\x8f\x8ab?'
p4266
tp4267
Rp4268
sg2007
g1978
(g1982
S"'\x13\xce\x8d\xac\x85\xdb?"
p4269
tp4270
Rp4271
sg2011
g1978
(g1982
S'\x81\x07\xbf\xbe.\xe0|?'
p4272
tp4273
Rp4274
sg2000
I17
ssg2041
(dp4275
g1977
g1978
(g1982
S'Yf\x0f\xf7\x0e<U@'
p4276
tp4277
Rp4278
sg1988
g1978
(g1982
S'\x9er\x9b\xb2\xe1]V@'
p4279
tp4280
Rp4281
sg1992
(lp4282
g1978
(g1982
S'\x14\x16T\x84\xfa\xb7E@'
p4283
tp4284
Rp4285
ag1978
(g1982
S'\x12\xa3jn\xd5\x13X@'
p4286
tp4287
Rp4288
asg2000
I17
ssg2056
(dp4289
g2003
g1978
(g1982
S'\x10\xddS\x00t\x84\xdf?'
p4290
tp4291
Rp4292
sg2007
g1978
(g1982
S'\x12>>\x18NdW@'
p4293
tp4294
Rp4295
sg2011
g1978
(g1982
S"\xa0\xb2'\x13\x80{\xe2?"
p4296
tp4297
Rp4298
sg2000
I17
ssg2067
(dp4299
g2003
g1978
(g1982
S'\x0e\xff\x96\xe5Df\xca>'
p4300
tp4301
Rp4302
sg2007
g1978
(g1982
S'L\x11f"\xe7\x97C?'
p4303
tp4304
Rp4305
sg2011
g1978
(g1982
S'\x86\x8d\xf1\xd4\xdb\x7f\xfc>'
p4306
tp4307
Rp4308
sg2000
I53
ssg2078
(dp4309
g2003
g1978
(g1982
S'5V\x9aq\x1bl\xb3?'
p4310
tp4311
Rp4312
sg2007
g1978
(g1982
S'\xf7\x17\xa1\xbcx\xd4,@'
p4313
tp4314
Rp4315
sg2011
g1978
(g1982
S'\xde~\x7f\x95d\x0b\xc0?'
p4316
tp4317
Rp4318
sg2000
I17
ssg2089
(dp4319
g2003
g1978
(g1982
S':\x9e\x0f\x97\xddfS?'
p4320
tp4321
Rp4322
sg2007
g1978
(g1982
S'\xde.;\xec\xb0\xcc\xcc?'
p4323
tp4324
Rp4325
sg2011
g1978
(g1982
S'A%\xfd\x8b\x00\x11q?'
p4326
tp4327
Rp4328
sg2000
I17
ssg2100
(dp4329
g2003
g1978
(g1982
S'\xfaqR\xda/jP?'
p4330
tp4331
Rp4332
sg2007
g1978
(g1982
S'/a\x12\x08\x9f]\xc8?'
p4333
tp4334
Rp4335
sg2011
g1978
(g1982
S'\xf0t{d\x9a\x93n?'
p4336
tp4337
Rp4338
sg2000
I17
ssg2111
(dp4339
g1977
g1978
(g1982
S'L3\xf4\x93\xad\x90V@'
p4340
tp4341
Rp4342
sg1988
g1978
(g1982
S"'U\x08\xe6\x9d.X@"
p4343
tp4344
Rp4345
sg1992
(lp4346
g1978
(g1982
S'\x02F\xb9(\x01vK@'
p4347
tp4348
Rp4349
ag1978
(g1982
S'\x1f\xd6@\xad\x1c\xa4X@'
p4350
tp4351
Rp4352
asg2000
I17
ssg2126
(dp4353
g2003
g1978
(g1982
S'\xd6\xf9\x82\xf8\x8a\xb7K?'
p4354
tp4355
Rp4356
sg2007
g1978
(g1982
S'm5q$9\x92\xc4?'
p4357
tp4358
Rp4359
sg2011
g1978
(g1982
S'*\x1fv\x06\xf6\xebm?'
p4360
tp4361
Rp4362
sg2000
I17
ssg2137
(dp4363
g1977
g1978
(g1982
S'\x11\xda*\xf0\x8b"U@'
p4364
tp4365
Rp4366
sg1988
g1978
(g1982
S'`u\xccxr\xd0W@'
p4367
tp4368
Rp4369
sg1992
(lp4370
g1978
(g1982
S'\x884?D?PA@'
p4371
tp4372
Rp4373
ag1978
(g1982
S'\x16\rR\x05\xd3gX@'
p4374
tp4375
Rp4376
asg2000
I53
ssg2152
(dp4377
g2003
g1978
(g1982
S'\xfaqR\xda/jP?'
p4378
tp4379
Rp4380
sg2007
g1978
(g1982
S'/a\x12\x08\x9f]\xc8?'
p4381
tp4382
Rp4383
sg2011
g1978
(g1982
S'\xff\x9e\x16\x80\x12\xfdm?'
p4384
tp4385
Rp4386
sg2000
I17
ssg2163
(dp4387
g2003
g1978
(g1982
S'\x94\x97\x9c=\xefS\xa9?'
p4388
tp4389
Rp4390
sg2007
g1978
(g1982
S'\x808\xba\x8fK\xcc"@'
p4391
tp4392
Rp4393
sg2011
g1978
(g1982
S'I\xd2\xd6\xbdj\xea\xb6?'
p4394
tp4395
Rp4396
sg2000
I17
sssg1963
(dp4397
g1975
(dp4398
g1977
g1978
(g1982
S'\xb1\xe2\xce\xc2\xc9\x1eT@'
p4399
tp4400
Rp4401
sg1988
g1978
(g1982
S'\x1a^\xdd\\H\xdcT@'
p4402
tp4403
Rp4404
sg1992
(lp4405
g1978
(g1982
S'\xea\xd0\xb4\xb7\xf7\xaaM@'
p4406
tp4407
Rp4408
ag1978
(g1982
S'4\xa7\xc1Cl>W@'
p4409
tp4410
Rp4411
asg2000
I15
ssg2001
(dp4412
g2003
g1978
(g1982
S'T\x04zj\xdf\xe9\xa9?'
p4413
tp4414
Rp4415
sg2007
g1978
(g1982
S'6\x8f\x06\xd1\x93;#@'
p4416
tp4417
Rp4418
sg2011
g1978
(g1982
S'\x9d\x99\xf4\xb3s9\xb7?'
p4419
tp4420
Rp4421
sg2000
I9
ssg2015
(dp4422
g1977
g1978
(g1982
S'`\x88\x80\xea\xa3\xd7T@'
p4423
tp4424
Rp4425
sg1988
g1978
(g1982
S'\x87K\xf4I\xf5\x9cV@'
p4426
tp4427
Rp4428
sg1992
(lp4429
g1978
(g1982
S'dz\xb7\x90\x19\x01N@'
p4430
tp4431
Rp4432
ag1978
(g1982
S'\x96\x92\xa3\x04\x81\x9aW@'
p4433
tp4434
Rp4435
asg2000
I9
ssg2030
(dp4436
g2003
g1978
(g1982
S'\x96\xa6\x80\x87\x04\xf9\xb5?'
p4437
tp4438
Rp4439
sg2007
g1978
(g1982
S'\xa3{\x91\\\xd1N0@'
p4440
tp4441
Rp4442
sg2011
g1978
(g1982
S'\x9fEfrR\xd7\xc1?'
p4443
tp4444
Rp4445
sg2000
I9
ssg2041
(dp4446
g1977
g1978
(g1982
S'<\x14T\xa2vfR@'
p4447
tp4448
Rp4449
sg1988
g1978
(g1982
S'&U\x1a\x11X\nS@'
p4450
tp4451
Rp4452
sg1992
(lp4453
g1978
(g1982
S'\xf8x..\x0b\x81K@'
p4454
tp4455
Rp4456
ag1978
(g1982
S'FZ\x9e\xb2\xe9\xc8T@'
p4457
tp4458
Rp4459
asg2000
I9
ssg2056
(dp4460
g2003
g1978
(g1982
S'\x1a5Ca\x18\n\x8f?'
p4461
tp4462
Rp4463
sg2007
g1978
(g1982
S'i\xe1/\x18~\t\x07@'
p4464
tp4465
Rp4466
sg2011
g1978
(g1982
S'0\x01\xca<Of\xa3?'
p4467
tp4468
Rp4469
sg2000
I9
ssg2067
(dp4470
g2003
g1978
(g1982
S'\xc0\xa3\x13ah\xa6\x97?'
p4471
tp4472
Rp4473
sg2007
g1978
(g1982
S'\x88\x93\x0cx\x81\x8d\x11@'
p4474
tp4475
Rp4476
sg2011
g1978
(g1982
S'%6\xd60?\xbf\xaa?'
p4477
tp4478
Rp4479
sg2000
I15
ssg2078
(dp4480
g2003
g1978
(g1982
S'\xae!\xa1a\x16\xfa\xb0?'
p4481
tp4482
Rp4483
sg2007
g1978
(g1982
S'\xfe-\xeb893)@'
p4484
tp4485
Rp4486
sg2011
g1978
(g1982
S'}G\x08\xae?\x0f\xbd?'
p4487
tp4488
Rp4489
sg2000
I9
ssg2089
(dp4490
g2003
g1978
(g1982
S'\xd3`\xc6\xa1#{\x7f?'
p4491
tp4492
Rp4493
sg2007
g1978
(g1982
S'\xdd;\x11rd]\xf7?'
p4494
tp4495
Rp4496
sg2011
g1978
(g1982
S'K\x07iH\xf5\xab\x95?'
p4497
tp4498
Rp4499
sg2000
I9
ssg2100
(dp4500
g2003
g1978
(g1982
S'\xf21\xdb\xa1_a\x95?'
p4501
tp4502
Rp4503
sg2007
g1978
(g1982
S'#^A\xf4\x89\xbc\x0f@'
p4504
tp4505
Rp4506
sg2011
g1978
(g1982
S'\xce\xe2\xfae\xb4x\xa8?'
p4507
tp4508
Rp4509
sg2000
I9
ssg2111
(dp4510
g1977
g1978
(g1982
S'\xe35\x93Z\xce`U@'
p4511
tp4512
Rp4513
sg1988
g1978
(g1982
S'zl\x06\xf3\x08\xafV@'
p4514
tp4515
Rp4516
sg1992
(lp4517
g1978
(g1982
S'\x0e\x05\x8fNq{P@'
p4518
tp4519
Rp4520
ag1978
(g1982
S'&P\xa1\x8c\xe0\x8fW@'
p4521
tp4522
Rp4523
asg2000
I9
ssg2126
(dp4524
g2003
g1978
(g1982
S'\xd3`\xc6\xa1#{\x7f?'
p4525
tp4526
Rp4527
sg2007
g1978
(g1982
S'\xdd;\x11rd]\xf7?'
p4528
tp4529
Rp4530
sg2011
g1978
(g1982
S'\xee\xce\xa6\xb6\x8b\xfd\x95?'
p4531
tp4532
Rp4533
sg2000
I9
ssg2137
(dp4534
g1977
g1978
(g1982
S'\x19\xa5\x13\xa3T\xd6T@'
p4535
tp4536
Rp4537
sg1988
g1978
(g1982
S'kt\x80\xb9\x91pV@'
p4538
tp4539
Rp4540
sg1992
(lp4541
g1978
(g1982
S'O\x9e*WP\x13M@'
p4542
tp4543
Rp4544
ag1978
(g1982
S'\xcc<\xbb\x90\x92)W@'
p4545
tp4546
Rp4547
asg2000
I15
ssg2152
(dp4548
g2003
g1978
(g1982
S'\xf21\xdb\xa1_a\x95?'
p4549
tp4550
Rp4551
sg2007
g1978
(g1982
S'#^A\xf4\x89\xbc\x0f@'
p4552
tp4553
Rp4554
sg2011
g1978
(g1982
S'\xca\x043\x80\x1a\xc5\xa8?'
p4555
tp4556
Rp4557
sg2000
I9
ssg2163
(dp4558
g2003
g1978
(g1982
S'rk\xf6\xf6\x9e\x88\xa3?'
p4559
tp4560
Rp4561
sg2007
g1978
(g1982
S'}\xc7\x95\xf6\xcb\xfe\x1c@'
p4562
tp4563
Rp4564
sg2011
g1978
(g1982
S'\xf1\x16\xc3^\x93\xbe\xb2?'
p4565
tp4566
Rp4567
sg2000
I9
sssS'all_neurons'
p4568
(dp4569
g1975
(dp4570
g1977
g1978
(g1982
S'\x1d\x98\x87\x8a\x15XQ@'
p4571
tp4572
Rp4573
sg1988
g1978
(g1982
S'\x1fy\xbb\xf7\xaa\x8cQ@'
p4574
tp4575
Rp4576
sg1992
(lp4577
g1978
(g1982
S'\xf7*\x9a`\xfa\xe8E@'
p4578
tp4579
Rp4580
ag1978
(g1982
S'\xf5\xc4\x8e\xa32kW@'
p4581
tp4582
Rp4583
asg2000
I645
ssg2001
(dp4584
g2003
g1978
(g1982
S'\x1e\x0cV\xba\xec\xbb\xac='
p4585
tp4586
Rp4587
sg2007
g1978
(g1982
S'\xfe\xdcK\xb2yS%>'
p4588
tp4589
Rp4590
sg2011
g1978
(g1982
S'\xfd{\xba\xedLo\xec='
p4591
tp4592
Rp4593
sg2000
I253
ssg2015
(dp4594
g1977
g1978
(g1982
S' \xc0\xbf\x1c\x85\xaeR@'
p4595
tp4596
Rp4597
sg1988
g1978
(g1982
S'hNY\x94\xe5\xf6R@'
p4598
tp4599
Rp4600
sg1992
(lp4601
g1978
(g1982
S'?I\xbf?3lG@'
p4602
tp4603
Rp4604
ag1978
(g1982
S'\xb1\x0b\xfb\n\x1f X@'
p4605
tp4606
Rp4607
asg2000
I254
ssg2030
(dp4608
g2003
g1978
(g1982
S'\xdcq\x82\x08\xa6\xb0\x15?'
p4609
tp4610
Rp4611
sg2007
g1978
(g1982
S'\x81\xd0P:\x1b\x19\x90?'
p4612
tp4613
Rp4614
sg2011
g1978
(g1982
S'\xaa\xe3g\xc2\xbco=?'
p4615
tp4616
Rp4617
sg2000
I254
ssg2041
(dp4618
g1977
g1978
(g1982
S'\x8d1\xd9]\xea\xebP@'
p4619
tp4620
Rp4621
sg1988
g1978
(g1982
S'1\x1a\xe9@\xce\xeaP@'
p4622
tp4623
Rp4624
sg1992
(lp4625
g1978
(g1982
S'\xc6\x9bG\xab\xf4\xb1G@'
p4626
tp4627
Rp4628
ag1978
(g1982
S'\xa9\xe0\xd2@3\x9fV@'
p4629
tp4630
Rp4631
asg2000
I254
ssg2056
(dp4632
g2003
g1978
(g1982
S'\x8e\xb5\xc6\xf6;\xa1\xaf:'
p4633
tp4634
Rp4635
sg2007
g1978
(g1982
S"\xbfz'\x81\xaay';"
p4636
tp4637
Rp4638
sg2011
g1978
(g1982
S"\xbfz'\x81\xaay';"
p4639
tp4640
Rp4641
sg2000
I253
ssg2067
(dp4642
g2003
g1978
(g1982
S'\xc8)\x04@V\x7f\xee>'
p4643
tp4644
Rp4645
sg2007
g1978
(g1982
S'\x02\x17\x83\x03\x82\xa2f?'
p4646
tp4647
Rp4648
sg2011
g1978
(g1982
S'\x02\x17\x83\x03\x82\xa2\x16?'
p4649
tp4650
Rp4651
sg2000
I645
ssg2078
(dp4652
g2003
g1978
(g1982
S'\x93\x11\xa6/\x13\xe8[<'
p4653
tp4654
Rp4655
sg2007
g1978
(g1982
S'\x0bA]=>\xb6\xd4<'
p4656
tp4657
Rp4658
sg2011
g1978
(g1982
S'o\x9aJd\xcb\x91\xb0<'
p4659
tp4660
Rp4661
sg2000
I254
ssg2089
(dp4662
g2003
g1978
(g1982
S'\x91\xe2\xfaX\xdc\xd9\xe2;'
p4663
tp4664
Rp4665
sg2007
g1978
(g1982
S'Oh\x14\x14c\xfb[<'
p4666
tp4667
Rp4668
sg2011
g1978
(g1982
S'Oh\x14\x14c\xfbK<'
p4669
tp4670
Rp4671
sg2000
I253
ssg2100
(dp4672
g2003
g1978
(g1982
S'\xdf\xc8\xa0\xa5U%\xf1<'
p4673
tp4674
Rp4675
sg2007
g1978
(g1982
S'+\xaa\xda!ksi='
p4676
tp4677
Rp4678
sg2011
g1978
(g1982
S'rq<\xc1\x9c\xf7@='
p4679
tp4680
Rp4681
sg2000
I254
ssg2111
(dp4682
g1977
g1978
(g1982
S'#\xbc\x18\x87\xba\x01S@'
p4683
tp4684
Rp4685
sg1988
g1978
(g1982
S'\xfe^\xc9h\xfbfS@'
p4686
tp4687
Rp4688
sg1992
(lp4689
g1978
(g1982
S'\x9a\xb1\xd2\xbet\xb3H@'
p4690
tp4691
Rp4692
ag1978
(g1982
S'`\xf6\x9f0\xd5\x1cX@'
p4693
tp4694
Rp4695
asg2000
I253
ssg2126
(dp4696
g2003
g1978
(g1982
S'\xdd\x85\x13q\xb5\x98\x02<'
p4697
tp4698
Rp4699
sg2007
g1978
(g1982
S'\xb4\xfa\xd8S\xad\x9a{<'
p4700
tp4701
Rp4702
sg2011
g1978
(g1982
S'x\xfc\xe57\x1egb<'
p4703
tp4704
Rp4705
sg2000
I253
ssg2137
(dp4706
g1977
g1978
(g1982
S'\x9c\xdb\xa6\xb5\x1e\xa4Q@'
p4707
tp4708
Rp4709
sg1988
g1978
(g1982
S'\xcca[-\xd2\x17R@'
p4710
tp4711
Rp4712
sg1992
(lp4713
g1978
(g1982
S'9e$&\x8aYD@'
p4714
tp4715
Rp4716
ag1978
(g1982
S"~\x91'\x1d'\xd6W@"
p4717
tp4718
Rp4719
asg2000
I645
ssg2152
(dp4720
g2003
g1978
(g1982
S'\x03f{\xf3b\xf0\x04='
p4721
tp4722
Rp4723
sg2007
g1978
(g1982
S'l+k\xe1\xd2\x14\x7f='
p4724
tp4725
Rp4726
sg2011
g1978
(g1982
S'l+k\xe1\xd2\x14O='
p4727
tp4728
Rp4729
sg2000
I254
ssg2163
(dp4730
g2003
g1978
(g1982
S'\x0c\xa5\x9e\x15\xe2>\xc4>'
p4731
tp4732
Rp4733
sg2007
g1978
(g1982
S'\xfe|\x17\x98W\r>?'
p4734
tp4735
Rp4736
sg2011
g1978
(g1982
S'\xe6\t[\x12\x98\xe5\xf6>'
p4737
tp4738
Rp4739
sg2000
I254
sssg1967
(dp4740
g1975
(dp4741
g1977
g1978
(g1982
S'\x00\x8a\xf3u\x99MQ@'
p4742
tp4743
Rp4744
sg1988
g1978
(g1982
S'l<\nL\xf0\xbbQ@'
p4745
tp4746
Rp4747
sg1992
(lp4748
g1978
(g1982
S'B\xbfy\xddg\xcbH@'
p4749
tp4750
Rp4751
ag1978
(g1982
S'\xcc\xcf\xac2L\xcaT@'
p4752
tp4753
Rp4754
asg2000
I62
ssg2001
(dp4755
g2003
g1978
(g1982
S'=7CB;N\x9b?'
p4756
tp4757
Rp4758
sg2007
g1978
(g1982
S'\xff\xe2-\xfb\x0fD\x14@'
p4759
tp4760
Rp4761
sg2011
g1978
(g1982
S'/\x07\x87\xa8{%\xad?'
p4762
tp4763
Rp4764
sg2000
I29
ssg2015
(dp4765
g1977
g1978
(g1982
S'X\xa0\xd0O\xdd|T@'
p4766
tp4767
Rp4768
sg1988
g1978
(g1982
S'\xfd\x88\xb1\x0c\xce\xdeT@'
p4769
tp4770
Rp4771
sg1992
(lp4772
g1978
(g1982
S'V\x13\xd8q\x8e\xdaL@'
p4773
tp4774
Rp4775
ag1978
(g1982
S'\xca\xe9\x19\xcc7~W@'
p4776
tp4777
Rp4778
asg2000
I29
ssg2030
(dp4779
g2003
g1978
(g1982
S'5\x91~\xbb\xd0\x8c\xf2>'
p4780
tp4781
Rp4782
sg2007
g1978
(g1982
S'\x8b\xdfO\xd6\x05\x89k?'
p4783
tp4784
Rp4785
sg2011
g1978
(g1982
S'\x0b\xf0=\x82j\xb3\x1a?'
p4786
tp4787
Rp4788
sg2000
I29
ssg2041
(dp4789
g1977
g1978
(g1982
S'\x1a]j\xbc\x84\x8fO@'
p4790
tp4791
Rp4792
sg1988
g1978
(g1982
S'n\x82\xae\x8f7\xe4O@'
p4793
tp4794
Rp4795
sg1992
(lp4796
g1978
(g1982
S'\x07{j0@\xbaF@'
p4797
tp4798
Rp4799
ag1978
(g1982
S'p\xb2\x89Dt\xfeS@'
p4800
tp4801
Rp4802
asg2000
I29
ssg2056
(dp4803
g2003
g1978
(g1982
S'\x16Oj\x01\x8fJ\x90?'
p4804
tp4805
Rp4806
sg2007
g1978
(g1982
S'e\xcd\x19F\xac.\x08@'
p4807
tp4808
Rp4809
sg2011
g1978
(g1982
S'\xcf\x07\xb5\x90~\x19\xa4?'
p4810
tp4811
Rp4812
sg2000
I29
ssg2067
(dp4813
g2003
g1978
(g1982
S'f\xa1\x98\x98H\xacC>'
p4814
tp4815
Rp4816
sg2007
g1978
(g1982
S'\x93\x8f\x82\xc2\xbb3\xbd>'
p4817
tp4818
Rp4819
sg2011
g1978
(g1982
S']\xc3\\\x02\xfc{{>'
p4820
tp4821
Rp4822
sg2000
I62
ssg2078
(dp4823
g2003
g1978
(g1982
S'\x00q\xbf\x1f\x17t\xcd?'
p4824
tp4825
Rp4826
sg2007
g1978
(g1982
S'\xde\x15\x90))\xdcE@'
p4827
tp4828
Rp4829
sg2011
g1978
(g1982
S'\xe2/Gz]n\xd3?'
p4830
tp4831
Rp4832
sg2000
I29
ssg2089
(dp4833
g2003
g1978
(g1982
S'\xb1\xad\x94\x08\xd3\xc6\xe0>'
p4834
tp4835
Rp4836
sg2007
g1978
(g1982
S'\xd3\xb1\xbc@!\xe7X?'
p4837
tp4838
Rp4839
sg2011
g1978
(g1982
S'\x83]E\xdc\xdcu\x0c?'
p4840
tp4841
Rp4842
sg2000
I29
ssg2100
(dp4843
g2003
g1978
(g1982
S'\xbc\xbaD\x89DR\xd6>'
p4844
tp4845
Rp4846
sg2007
g1978
(g1982
S'\x98\x02\xe1\xdd\x0e\x91P?'
p4847
tp4848
Rp4849
sg2011
g1978
(g1982
S'\xf6Q<\x87\xc3c\x04?'
p4850
tp4851
Rp4852
sg2000
I29
ssg2111
(dp4853
g1977
g1978
(g1982
S'\xe0XnS\xc8\xcaT@'
p4854
tp4855
Rp4856
sg1988
g1978
(g1982
S'\x9eg\xc0\xac<hU@'
p4857
tp4858
Rp4859
sg1992
(lp4860
g1978
(g1982
S'}\x8bK\x9b1+P@'
p4861
tp4862
Rp4863
ag1978
(g1982
S'\xfcMQ\xb1\xa4zW@'
p4864
tp4865
Rp4866
asg2000
I29
ssg2126
(dp4867
g2003
g1978
(g1982
S'\xddi\x9b\x1a*(\xd2>'
p4868
tp4869
Rp4870
sg2007
g1978
(g1982
S'$\xb1~\x7f\x9e\xf3J?'
p4871
tp4872
Rp4873
sg2011
g1978
(g1982
S'\xc5\xd7F\x99\xc1?\x01?'
p4874
tp4875
Rp4876
sg2000
I29
ssg2137
(dp4877
g1977
g1978
(g1982
S"\x98\xa5'\xad\xb3\xd9S@"
p4878
tp4879
Rp4880
sg1988
g1978
(g1982
S'\xa6\x10\x19\xec\xd8\xc8T@'
p4881
tp4882
Rp4883
sg1992
(lp4884
g1978
(g1982
S'E\xd5\xfa\xb7\xfd\x9bH@'
p4885
tp4886
Rp4887
ag1978
(g1982
S'gT\xe8\x04\xc0\x7fW@'
p4888
tp4889
Rp4890
asg2000
I62
ssg2152
(dp4891
g2003
g1978
(g1982
S'\xe51qz\x12\xab\xe6>'
p4892
tp4893
Rp4894
sg2007
g1978
(g1982
S'\x08\x03\xe0\xb6\xf7\xd2`?'
p4895
tp4896
Rp4897
sg2011
g1978
(g1982
S'\xd5\x9c\x99K\x19\xf2\x11?'
p4898
tp4899
Rp4900
sg2000
I29
ssg2163
(dp4901
g2003
g1978
(g1982
S'd\x94\xc3\xb5T\xc1\x1d?'
p4902
tp4903
Rp4904
sg2007
g1978
(g1982
S'"(\xe7\xde|\x15\x96?'
p4905
tp4906
Rp4907
sg2011
g1978
(g1982
S'\x1e@?\x8dR\xa1C?'
p4908
tp4909
Rp4910
sg2000
I29
sssg1969
(dp4911
g1975
(dp4912
g1977
g1978
(g1982
S'\x18\xb7p\x1a\xfedP@'
p4913
tp4914
Rp4915
sg1988
g1978
(g1982
S'J\xb9{\xeb\xceuP@'
p4916
tp4917
Rp4918
sg1992
(lp4919
g1978
(g1982
S'\xb1\xab\x88"S\x16F@'
p4920
tp4921
Rp4922
ag1978
(g1982
S'\x8f\xf2K\x1e\x90*T@'
p4923
tp4924
Rp4925
asg2000
I18
ssg2001
(dp4926
g2003
g1978
(g1982
S'YB\x85O\xef\xda\xbb?'
p4927
tp4928
Rp4929
sg2007
g1978
(g1982
S'>\xe7\x04\x9d}\xac4@'
p4930
tp4931
Rp4932
sg2011
g1978
(g1982
S'\xbfJH\xf0\xc6\xb0\xc5?'
p4933
tp4934
Rp4935
sg2000
I3
ssg2015
(dp4936
g1977
g1978
(g1982
S'\x0e6\x15\x01\x9c\x1dU@'
p4937
tp4938
Rp4939
sg1988
g1978
(g1982
S'\xc6\x80"\xea\x8b\xa3T@'
p4940
tp4941
Rp4942
sg1992
(lp4943
g1978
(g1982
S'L\xf2\x8f\x88\xac\xacR@'
p4944
tp4945
Rp4946
ag1978
(g1982
S'\x1c_D#\xfd\xe3W@'
p4947
tp4948
Rp4949
asg2000
I3
ssg2030
(dp4950
g2003
g1978
(g1982
S'.u\xa2\xde?>\xd2?'
p4951
tp4952
Rp4953
sg2007
g1978
(g1982
S'\xf0%y\xcef\x14K@'
p4954
tp4955
Rp4956
sg2011
g1978
(g1982
S'0\xab\x1c/\x97k\xd7?'
p4957
tp4958
Rp4959
sg2000
I3
ssg2041
(dp4960
g1977
g1978
(g1982
S'\xd0d.\x17\x11\xcaQ@'
p4961
tp4962
Rp4963
sg1988
g1978
(g1982
S'\xfd\xd2\xcf\x9e\xa7\xcfQ@'
p4964
tp4965
Rp4966
sg1992
(lp4967
g1978
(g1982
S'Q\x9a\x1bF\r\xe8N@'
p4968
tp4969
Rp4970
ag1978
(g1982
S'&\xfc],2\x1cT@'
p4971
tp4972
Rp4973
asg2000
I3
ssg2056
(dp4974
g2003
g1978
(g1982
S'YB\x85O\xef\xda\xbb?'
p4975
tp4976
Rp4977
sg2007
g1978
(g1982
S'>\xe7\x04\x9d}\xac4@'
p4978
tp4979
Rp4980
sg2011
g1978
(g1982
S'\xcf\xe5\x7f\xf6\xaa\xde\xc5?'
p4981
tp4982
Rp4983
sg2000
I3
ssg2067
(dp4984
g2003
g1978
(g1982
S'%;\xb0\xf9\xddFS?'
p4985
tp4986
Rp4987
sg2007
g1978
(g1982
S'\xcb\x97\xa1~1\x9d\xcc?'
p4988
tp4989
Rp4990
sg2011
g1978
(g1982
S"q\x9a'\x1c\xc2Fq?"
p4991
tp4992
Rp4993
sg2000
I18
ssg2078
(dp4994
g2003
g1978
(g1982
S'.u\xa2\xde?>\xd2?'
p4995
tp4996
Rp4997
sg2007
g1978
(g1982
S'\xf0%y\xcef\x14K@'
p4998
tp4999
Rp5000
sg2011
g1978
(g1982
S'\x88\xee\x0e|`\x94\xd7?'
p5001
tp5002
Rp5003
sg2000
I3
ssg2089
(dp5004
g2003
g1978
(g1982
S'YB\x85O\xef\xda\xbb?'
p5005
tp5006
Rp5007
sg2007
g1978
(g1982
S'>\xe7\x04\x9d}\xac4@'
p5008
tp5009
Rp5010
sg2011
g1978
(g1982
S'\x86\xd4\x9e\xc9R\r\xc6?'
p5011
tp5012
Rp5013
sg2000
I3
ssg2100
(dp5014
g2003
g1978
(g1982
S'YB\x85O\xef\xda\xbb?'
p5015
tp5016
Rp5017
sg2007
g1978
(g1982
S'>\xe7\x04\x9d}\xac4@'
p5018
tp5019
Rp5020
sg2011
g1978
(g1982
S'8\xff\xc2W7W\xc5?'
p5021
tp5022
Rp5023
sg2000
I3
ssg2111
(dp5024
g1977
g1978
(g1982
S'\xf9:\xdd\x0c\xd9\xe1U@'
p5025
tp5026
Rp5027
sg1988
g1978
(g1982
S'\xe9\xb7@>F\xcbT@'
p5028
tp5029
Rp5030
sg1992
(lp5031
g1978
(g1982
S'\x067\xe0\xa3T\x9cT@'
p5032
tp5033
Rp5034
ag1978
(g1982
S'\xe0\xcdG\xd3]\xeaW@'
p5035
tp5036
Rp5037
asg2000
I3
ssg2126
(dp5038
g2003
g1978
(g1982
S'YB\x85O\xef\xda\xbb?'
p5039
tp5040
Rp5041
sg2007
g1978
(g1982
S'>\xe7\x04\x9d}\xac4@'
p5042
tp5043
Rp5044
sg2011
g1978
(g1982
S'b[\x13\xad\x82+\xc5?'
p5045
tp5046
Rp5047
sg2000
I3
ssg2137
(dp5048
g1977
g1978
(g1982
S'\xb4eX>_\xf8Q@'
p5049
tp5050
Rp5051
sg1988
g1978
(g1982
S'\xc6;\xc5\xed{\xeaR@'
p5052
tp5053
Rp5054
sg1992
(lp5055
g1978
(g1982
S':\xbcZ\x96\x8e\xc6E@'
p5056
tp5057
Rp5058
ag1978
(g1982
S'"4\xcd\x9d\xe4SU@'
p5059
tp5060
Rp5061
asg2000
I18
ssg2152
(dp5062
g2003
g1978
(g1982
S'YB\x85O\xef\xda\xbb?'
p5063
tp5064
Rp5065
sg2007
g1978
(g1982
S'>\xe7\x04\x9d}\xac4@'
p5066
tp5067
Rp5068
sg2011
g1978
(g1982
S'K\x01i\xf0\xa1\x83\xc5?'
p5069
tp5070
Rp5071
sg2000
I3
ssg2163
(dp5072
g2003
g1978
(g1982
S'\x00\x00\x00\x00\x00\x00\xf0?'
p5073
tp5074
Rp5075
sg2007
g1978
(g1982
S'\x00\x00\x00\x00\x00\xc0g@'
p5076
tp5077
Rp5078
sg2011
g1978
(g1982
S'\x00\x00\x00\x00\x00\x00\xf0?'
p5079
tp5080
Rp5081
sg2000
I3
sssg1971
(dp5082
g1975
(dp5083
g1977
g1978
(g1982
S'\xa9\xff\x93\x1d\x8d\xa2P@'
p5084
tp5085
Rp5086
sg1988
g1978
(g1982
S'j\\\xfc\xec\xbb\xe0P@'
p5087
tp5088
Rp5089
sg1992
(lp5090
g1978
(g1982
S'(Y\xdb\x7fc4G@'
p5091
tp5092
Rp5093
ag1978
(g1982
S'\xd78D\xae0ET@'
p5094
tp5095
Rp5096
asg2000
I88
ssg2001
(dp5097
g2003
g1978
(g1982
S'\xbe%|\x9e-Q\x89?'
p5098
tp5099
Rp5100
sg2007
g1978
(g1982
S'\x03$\xa0\xdb?\xca\x02@'
p5101
tp5102
Rp5103
sg2011
g1978
(g1982
S'\x86\xa9|:7@\xa0?'
p5104
tp5105
Rp5106
sg2000
I38
ssg2015
(dp5107
g1977
g1978
(g1982
S'2\xa7\x8d\x8b\xab\xf2P@'
p5108
tp5109
Rp5110
sg1988
g1978
(g1982
S'\xf2\xe0\x14EY\xcaQ@'
p5111
tp5112
Rp5113
sg1992
(lp5114
g1978
(g1982
S'!\x81\x1a\xfd\x83\xa3I@'
p5115
tp5116
Rp5117
ag1978
(g1982
S'\xd4\xeds\xef\xbaOU@'
p5118
tp5119
Rp5120
asg2000
I38
ssg2030
(dp5121
g2003
g1978
(g1982
S'\xa4\x87g\xb1\x18n\xd5?'
p5122
tp5123
Rp5124
sg2007
g1978
(g1982
S'W\xadU\xa7l\xcfO@'
p5125
tp5126
Rp5127
sg2011
g1978
(g1982
S'\xa3\xdat\xad\xcc\x9c\xda?'
p5128
tp5129
Rp5130
sg2000
I38
ssg2041
(dp5131
g1977
g1978
(g1982
S"H\xa6'\xd4\x1e\xa7P@"
p5132
tp5133
Rp5134
sg1988
g1978
(g1982
S'\x861\xb0\x87\xb6\xe6P@'
p5135
tp5136
Rp5137
sg1992
(lp5138
g1978
(g1982
S'\xfb|:\x02\xc1nL@'
p5139
tp5140
Rp5141
ag1978
(g1982
S'\xc4\xd4\x93\xa6`MS@'
p5142
tp5143
Rp5144
asg2000
I38
ssg2056
(dp5145
g2003
g1978
(g1982
S'*\xef\xa9\x12\x11=\xf7>'
p5146
tp5147
Rp5148
sg2007
g1978
(g1982
S'\x81\x1f\xda\xabR?q?'
p5149
tp5150
Rp5151
sg2011
g1978
(g1982
S'=\xb46\x1a\x99; ?'
p5152
tp5153
Rp5154
sg2000
I38
ssg2067
(dp5155
g2003
g1978
(g1982
S'\x18\x1eQ\xe7L{\xe3?'
p5156
tp5157
Rp5158
sg2007
g1978
(g1982
S"\xach\\'\x06\xeb\\@"
p5159
tp5160
Rp5161
sg2011
g1978
(g1982
S'\xf1\x91\xb7y\x04\x08\xe5?'
p5162
tp5163
Rp5164
sg2000
I88
ssg2078
(dp5165
g2003
g1978
(g1982
S'A;h\xa5\xd9^\x86?'
p5166
tp5167
Rp5168
sg2007
g1978
(g1982
S'\xfa[\xc3\x88e\x9a\x00@'
p5169
tp5170
Rp5171
sg2011
g1978
(g1982
S'\xa2\xb0\x1b\xd6\xaf\xee\x9d?'
p5172
tp5173
Rp5174
sg2000
I38
ssg2089
(dp5175
g2003
g1978
(g1982
S'\x9c~1&\xb1\x9e\xb4?'
p5176
tp5177
Rp5178
sg2007
g1978
(g1982
S'\xf0w\xb1\xf4\x8e\x9b.@'
p5179
tp5180
Rp5181
sg2011
g1978
(g1982
S's\x9a>\x14\x11\xe3\xc0?'
p5182
tp5183
Rp5184
sg2000
I38
ssg2100
(dp5185
g2003
g1978
(g1982
S'hd_\xb9\x8e4\xe1?'
p5186
tp5187
Rp5188
sg2007
g1978
(g1982
S'\n\x99)\xdb\x03\x8aY@'
p5189
tp5190
Rp5191
sg2011
g1978
(g1982
S'\xb0)\xc9\x90\xdeW\xe3?'
p5192
tp5193
Rp5194
sg2000
I38
ssg2111
(dp5195
g1977
g1978
(g1982
S'\xc3Vi\xbe\x89LQ@'
p5196
tp5197
Rp5198
sg1988
g1978
(g1982
S'\xab\xde\x88\xb5\xa5\nR@'
p5199
tp5200
Rp5201
sg1992
(lp5202
g1978
(g1982
S'\xcd\xac\xca:\rXI@'
p5203
tp5204
Rp5205
ag1978
(g1982
S'\x1b?s\xc4\\\xbdU@'
p5206
tp5207
Rp5208
asg2000
I38
ssg2126
(dp5209
g2003
g1978
(g1982
S'Po\xf1L\xfc\x84\xcb?'
p5210
tp5211
Rp5212
sg2007
g1978
(g1982
S'\x9d0\x1bA\xb3lD@'
p5213
tp5214
Rp5215
sg2011
g1978
(g1982
S'\xa0\xad\x84\xce1i\xd2?'
p5216
tp5217
Rp5218
sg2000
I38
ssg2137
(dp5219
g1977
g1978
(g1982
S'\x835@\xee?@P@'
p5220
tp5221
Rp5222
sg1988
g1978
(g1982
S'\xc8\xf5c\x12\xcf\xbdP@'
p5223
tp5224
Rp5225
sg1992
(lp5226
g1978
(g1982
S'c\x8a\x8f\x81\xe3\x8fC@'
p5227
tp5228
Rp5229
ag1978
(g1982
S'\x07~\xf7R\xc0\xa2U@'
p5230
tp5231
Rp5232
asg2000
I88
ssg2152
(dp5233
g2003
g1978
(g1982
S'\xa8fx\xdd\x88A\xc5?'
p5234
tp5235
Rp5236
sg2007
g1978
(g1982
S'a\xb8\xbe(G\x8d?@'
p5237
tp5238
Rp5239
sg2011
g1978
(g1982
S'\xd9\xd2\xeb\xc5t\xea\xcd?'
p5240
tp5241
Rp5242
sg2000
I38
ssg2163
(dp5243
g2003
g1978
(g1982
S'\x16\xb2\t"u\xd0\xe7?'
p5244
tp5245
Rp5246
sg2007
g1978
(g1982
S',2C\xef\xb6\xaca@'
p5247
tp5248
Rp5249
sg2011
g1978
(g1982
S'\xe7\xaa\x17m\x90S\xe8?'
p5250
tp5251
Rp5252
sg2000
I38
ssstp5253
.