((lp0
(lp1
S'489719193'
p2
aS'Pvalb-IRES-Cre'
p3
aF0.9533516982351516
aFnan
aF0.9891335495902571
aFnan
aFnan
aa(lp4
S'518271679'
p5
aS'Scnn1a-Tg2-Cre'
p6
aF0.6962845737305673
aF0.6290457765283922
aF0.5788625336071119
aF0.5901751114690572
aF0.39233350680817713
aa(lp7
S'481004298'
p8
aS'Htr3a-Cre_NO152'
p9
aF0.3296957813449524
aFnan
aF0.9213149246049026
aFnan
aFnan
aa(lp10
S'569469018'
p11
aS'Chrna2-Cre_OE25'
p12
aF0.7017736027823099
aFnan
aF0.8132311181380562
aFnan
aFnan
aa(lp13
S'314900022'
p14
aS'Scnn1a-Tg3-Cre'
p15
aF0.48589859241967837
aFnan
aF0.6492306391493418
aFnan
aFnan
aa(lp16
S'476178907'
p17
aS'Scnn1a-Tg3-Cre'
p18
aF0.6142126152132552
aF0.5882039575051797
aF0.6439450924795267
aF0.6880611509839791
aF0.0
aa(lp19
S'485058595'
p20
aS'Sst-IRES-Cre'
p21
aF0.7353602024792252
aFnan
aF0.7352433553425578
aFnan
aFnan
aa(lp22
S'501730497'
p23
aS'Sst-IRES-Cre'
p24
aF0.558212144505932
aFnan
aF0.6363035902051226
aFnan
aFnan
aa(lp25
S'564346637'
p26
aS'Ndnf-IRES2-dgCre'
p27
aF0.4159658753213658
aF0.41079614553467647
aF0.5316449037149777
aF0.5198870809916978
aF0.0
aa(lp28
S'555060623'
p29
aS'Chrna2-Cre_OE25'
p30
aF0.47624942047783697
aFnan
aF0.4175009067832033
aFnan
aFnan
aa(lp31
S'501280518'
p32
aS'Sst-IRES-Cre'
p33
aF0.6117206840100413
aFnan
aF0.724009595756075
aFnan
aFnan
aa(lp34
S'479150681'
p35
aS'Rbp4-Cre_KL100'
p36
aF0.7046573790279907
aFnan
aF0.645221635069004
aFnan
aFnan
aa(lp37
S'386049446'
p38
aS'Nr5a1-Cre'
p39
aF0.5984775265780534
aFnan
aF0.567810785310926
aFnan
aFnan
aa(lp40
S'483091812'
p41
aS'Rorb-IRES2-Cre-D'
p42
aF0.2701956832712207
aFnan
aF0.3585190629458374
aFnan
aFnan
aa(lp43
S'485339983'
p44
aS'Ntsr1-Cre_GN220'
p45
aF0.44971813395695454
aF0.2016593483632257
aF0.6949433884573273
aF0.7412924715779268
aF0.5870124901729191
aa(lp46
S'485577686'
p47
aS'Rbp4-Cre_KL100'
p48
aF0.29402399037013466
aF0.09518376748840061
aF0.5341963744572077
aF0.570462063103828
aF0.560682387991622
aa(lp49
S'581058864'
p50
aS'Nkx2-1-CreERT2'
p51
aF0.757239813314629
aFnan
aF0.9085121060254234
aFnan
aFnan
aa(lp52
S'482654108'
p53
aS'Htr3a-Cre_NO152'
p54
aF0.4022791119920029
aF0.26780758666143956
aF0.9239110345788154
aF0.9165584802524326
aF0.8365775609534377
aa(lp55
S'485932822'
p56
aS'Cux2-CreERT2'
p57
aF0.5063947830830693
aFnan
aF0.8066775678789604
aFnan
aFnan
aa(lp58
S'561520050'
p59
aS'Nkx2-1-CreERT2'
p60
aF0.7628104819656122
aFnan
aF0.7560762262769927
aFnan
aFnan
aa(lp61
S'513879001'
p62
aS'Scnn1a-Tg3-Cre'
p63
aF0.5371780141030276
aFnan
aF0.45424730799377744
aFnan
aFnan
aa(lp64
S'567029686'
p65
aS'Nkx2-1-CreERT2'
p66
aF0.4016938472899478
aFnan
aF0.38468180428656873
aFnan
aFnan
aa(lp67
S'580895033'
p68
aS'Chrna2-Cre_OE25'
p69
aF0.8493365092125525
aF0.8882540368687765
aF0.9192162154035345
aF0.952096857211585
aF0.8904106067655934
aa(lp70
S'570010469'
p71
aS'Chrna2-Cre_OE25'
p72
aF0.4083639546579112
aFnan
aF0.5415253841128262
aFnan
aFnan
aa(lp73
S'577218818'
p74
aS'Chat-IRES-Cre-neo'
p75
aF0.46296196645925614
aFnan
aF0.8324195837124793
aFnan
aFnan
aa(lp76
S'469800845'
p77
aS'Scnn1a-Tg3-Cre'
p78
aF0.6940906177222184
aFnan
aF0.4656818362521436
aFnan
aFnan
aa(lp79
S'327648537'
p80
aS'Htr3a-Cre_NO152'
p81
aF0.6364694068055462
aF0.3358024792499704
aF0.9316619574701276
aF0.9248403551895278
aF0.8861251749030503
aa(lp82
S'501562903'
p83
aS'Ntsr1-Cre_GN220'
p84
aF0.3128722263263694
aFnan
aF0.8383956350015512
aFnan
aFnan
aa(lp85
S'512322162'
p86
aS'Ctgf-2A-dgCre'
p87
aF0.3263656365989941
aF0.35786371342819395
aF0.5828501508775197
aF0.6303064704737044
aF0.7923317500377234
aa(lp88
S'490263438'
p89
aS'Ntsr1-Cre_GN220'
p90
aF0.6690214622892758
aF0.405655512273768
aF0.826686300569969
aF0.8546846053199132
aF0.808065241843577
aa(lp91
S'485889190'
p92
aS'Rorb-IRES2-Cre-D'
p93
aF0.6468253630614004
aFnan
aF0.5919940618088725
aFnan
aFnan
aa(lp94
S'505808144'
p95
aS'Nr5a1-Cre'
p96
aF0.6335398385314454
aFnan
aF0.7869340726398116
aFnan
aFnan
aa(lp97
S'527869035'
p98
aS'Ndnf-IRES2-dgCre'
p99
aF0.8003283062871593
aF0.6874873869807988
aF0.8824551476839749
aF0.8898752135898375
aF0.8564277834527485
aa(lp100
S'501951290'
p101
aS'Rorb-IRES2-Cre-D'
p102
aF0.7514880644354098
aF0.7827810061112803
aF0.4629905191792466
aF0.4739659125397787
aF0.5455177889211744
aa(lp103
S'566673170'
p104
aS'Nkx2-1-CreERT2'
p105
aF0.7742784679163826
aFnan
aF0.6616047960897368
aFnan
aFnan
aa(lp106
S'502267531'
p107
aS'Nr5a1-Cre'
p108
aF0.6819607976858445
aF0.5796581564401668
aF0.6068024075623198
aF0.7009073619256515
aF0.560982732198666
aa(lp109
S'490931049'
p110
aS'Rbp4-Cre_KL100'
p111
aF0.622221233492323
aFnan
aF0.5050988197690773
aFnan
aFnan
aa(lp112
S'485838981'
p113
aS'Rbp4-Cre_KL100'
p114
aF0.805405636719807
aF0.5149179916646134
aF0.7593680078874767
aF0.7786291307717315
aF0.6525711175384359
aa(lp115
S'476054829'
p116
aS'Scnn1a-Tg2-Cre'
p117
aF0.5515663554065047
aFnan
aF0.41011841447871783
aFnan
aFnan
aa(lp118
S'367567889'
p119
aS'Nr5a1-Cre'
p120
aF0.40846685830742646
aFnan
aF0.6201820631991785
aFnan
aFnan
aa(lp121
S'503517607'
p122
aS'Ntsr1-Cre_GN220'
p123
aF0.5516894675187018
aFnan
aF0.4421491632654639
aFnan
aFnan
aa(lp124
S'502382506'
p125
aS'Sst-IRES-Cre'
p126
aF0.7996720989614
aF0.8380163565096157
aF0.7815675356052978
aF0.8107185898554228
aF0.6729475249868808
aa(lp127
S'484635029'
p128
aS'Pvalb-IRES-Cre'
p129
aF0.9006225813074473
aF0.8052788738422162
aF0.9793162262213833
aF0.9593675261695959
aF0.970368826459081
aa(lp130
S'474626527'
p131
aS'Htr3a-Cre_NO152'
p132
aF0.6978256214242631
aFnan
aF0.8360792945319772
aFnan
aFnan
aa(lp133
S'485955227'
p134
aS'Cux2-CreERT2'
p135
aF0.39668254026904787
aFnan
aF0.6067779416568101
aFnan
aFnan
aa(lp136
S'528501887'
p137
aS'Ctgf-2A-dgCre'
p138
aF0.29576621292695243
aF0.3804534868828539
aF0.4097564411319652
aF0.3243946259466568
aF0.3188509010178602
aa(lp139
S'502574847'
p140
aS'Rorb-IRES2-Cre-D'
p141
aF0.5728455048348627
aF0.4174163799681617
aF0.5136435186877879
aF0.6537205309597723
aF0.18983064025767402
aa(lp142
S'313861608'
p143
aS'Pvalb-IRES-Cre'
p144
aF0.8359135689639691
aFnan
aF0.9245505084168615
aFnan
aFnan
aa(lp145
S'515949222'
p146
aS'Cux2-CreERT2'
p147
aF0.809207405682443
aFnan
aF0.7844396280956426
aFnan
aFnan
aa(lp148
S'481018305'
p149
aS'Pvalb-IRES-Cre'
p150
aF0.9722414847969102
aF0.8848012419582308
aF0.9909021296665628
aF0.9771100920166889
aF0.9642301933296211
aa(lp151
S'480353286'
p152
aS'Rorb-IRES2-Cre-D'
p153
aF0.5694090708456329
aF0.18879690378138447
aF0.41154395831760227
aF0.5350813284744761
aF0.5481626458477022
aa(lp154
S'489751959'
p155
aS'Cux2-CreERT2'
p156
aF0.45423169841117844
aF0.12550362356303632
aF0.7510248622695512
aF0.7770767342531365
aF0.7275786694636439
aa(lp157
S'483018019'
p158
aS'Cux2-CreERT2'
p159
aF0.557381587018358
aFnan
aF0.5219358791192859
aFnan
aFnan
aa(lp160
S'476129135'
p161
aS'Scnn1a-Tg3-Cre'
p162
aF0.258240905105508
aFnan
aF0.2961585831344587
aFnan
aFnan
aa(lp163
S'478439166'
p164
aS'Nr5a1-Cre'
p165
aF0.5856026065799192
aFnan
aF0.7962727519013975
aFnan
aFnan
aa(lp166
S'478498617'
p167
aS'Rorb-IRES2-Cre-D'
p168
aF0.6544239774186774
aF0.5550646384884262
aF0.6829397437666497
aF0.683026308931888
aF0.23088164464331384
aa(lp169
S'473951795'
p170
aS'Htr3a-Cre_NO152'
p171
aF0.5001043199119949
aFnan
aF0.25200979362290704
aFnan
aFnan
aa(lp172
S'563373346'
p173
aS'Nkx2-1-CreERT2'
p174
aF0.6874530701501371
aFnan
aF0.7268262932608267
aFnan
aFnan
aa(lp175
S'483027960'
p176
aS'Nr5a1-Cre'
p177
aF0.6082353627266072
aFnan
aF0.8302425807054208
aFnan
aFnan
aa(lp178
S'561329890'
p179
aS'Nkx2-1-CreERT2'
p180
aF0.6475778874256553
aFnan
aF0.8117061038790978
aFnan
aFnan
aa(lp181
S'486921382'
p182
aS'Htr3a-Cre_NO152'
p183
aF0.5227719221215533
aFnan
aF0.80755334931649
aFnan
aFnan
aa(lp184
S'502873181'
p185
aS'Rorb-IRES2-Cre-D'
p186
aF0.0
aFnan
aF0.3688311510140771
aFnan
aFnan
aa(lp187
S'475625477'
p188
aS'Htr3a-Cre_NO152'
p189
aF0.4123196907422285
aF0.39101537499977446
aF0.6224426660661483
aF0.6346255326686395
aF0.6984708077781466
aa(lp190
S'486239338'
p191
aS'Cux2-CreERT2'
p192
aF0.5410480053670202
aF0.32616227317046337
aF0.5586794510334403
aF0.6219889016132436
aF0.6622325545978941
aa(lp193
S'320455763'
p194
aS'Pvalb-IRES-Cre'
p195
aF0.8979747398734017
aFnan
aF0.9329771006871727
aFnan
aFnan
aa(lp196
S'329224678'
p197
aS'Sst-IRES-Cre'
p198
aF0.8465453541818407
aF0.7633834891691846
aF0.8640937899209883
aF0.7994475753746731
aF0.8280058874894018
aa(lp199
S'487663469'
p200
aS'Rbp4-Cre_KL100'
p201
aF0.8497239795165374
aF0.4323161567552526
aF0.8175569935956551
aF0.752608199646102
aF0.8389546514116015
aa(lp202
S'517753911'
p203
aS'Rorb-IRES2-Cre-D'
p204
aF0.67418697469914
aFnan
aF0.5086226686965298
aFnan
aFnan
aa(lp205
S'487176969'
p206
aS'Htr3a-Cre_NO152'
p207
aF0.720165256972012
aF0.49437062567197626
aF0.8046949168087049
aF0.5530836583393266
aF0.8456537558782145
aa(lp208
S'505512874'
p209
aS'Cux2-CreERT2'
p210
aF0.7346425372250242
aFnan
aF0.84172625788572
aFnan
aFnan
aa(lp211
S'523478869'
p212
aS'Vip-IRES-Cre'
p213
aF0.7897327028390576
aFnan
aF0.8524553691313576
aFnan
aFnan
aa(lp214
S'501014504'
p215
aS'Rbp4-Cre_KL100'
p216
aF0.7546902078102096
aFnan
aF0.7722870246990032
aFnan
aFnan
aa(lp217
S'320207387'
p218
aS'Scnn1a-Tg3-Cre'
p219
aF0.3373982372073759
aF0.14924841920060014
aF0.8081420665769821
aF0.8190426721364324
aF0.7387218156292996
aa(lp220
S'397348126'
p221
aS'Nr5a1-Cre'
p222
aF0.383993466478801
aFnan
aF0.5642127294095071
aFnan
aFnan
aa(lp223
S'469763389'
p224
aS'Rorb-IRES2-Cre-D'
p225
aF0.6238621094147755
aFnan
aF0.6811659594187823
aFnan
aFnan
aa(lp226
S'481017021'
p227
aS'Pvalb-IRES-Cre'
p228
aF0.7342709583858146
aFnan
aF0.8930252614810319
aFnan
aFnan
aa(lp229
S'478447600'
p230
aS'Nr5a1-Cre'
p231
aF0.3681191626762387
aF0.08901485135030683
aF0.7476187301803275
aF0.7689434351402009
aF0.5862732811287159
aa(lp232
S'475512108'
p233
aS'Sst-IRES-Cre'
p234
aF0.5659880195384603
aFnan
aF0.8537733288156704
aFnan
aFnan
aa(lp235
S'341459814'
p236
aS'Pvalb-IRES-Cre'
p237
aF0.9538084478518398
aFnan
aF0.9691433283214589
aFnan
aFnan
aa(lp238
S'476100382'
p239
aS'Sst-IRES-Cre'
p240
aF0.5384668411539644
aF0.5329028395955686
aF0.6893695480920405
aF0.7314015438896866
aF0.6888098913553391
aa(lp241
S'488430487'
p242
aS'Ntsr1-Cre_GN220'
p243
aF0.4645405415244223
aFnan
aF0.824995125197695
aFnan
aFnan
aa(lp244
S'526946319'
p245
aS'Ctgf-2A-dgCre'
p246
aF0.8105149150795091
aFnan
aF0.8157500886609764
aFnan
aFnan
aa(lp247
S'486110216'
p248
aS'Rbp4-Cre_KL100'
p249
aF0.2690883266765217
aFnan
aF0.7154222487039021
aFnan
aFnan
aa(lp250
S'479298854'
p251
aS'Pvalb-IRES-Cre'
p252
aF0.8949997464245952
aFnan
aF0.9874858689237475
aFnan
aFnan
aa(lp253
S'500894271'
p254
aS'Rorb-IRES2-Cre-D'
p255
aF0.6252665389171643
aFnan
aF0.6634271168516526
aFnan
aFnan
aa(lp256
S'556369531'
p257
aS'Chrna2-Cre_OE25'
p258
aF0.3968618226049095
aF0.31903444425163596
aF0.2943639739964313
aF0.2937359241178308
aF0.0
aa(lp259
S'487661754'
p260
aS'Cux2-CreERT2'
p261
aF0.42167047581120165
aFnan
aF0.465472929807892
aFnan
aFnan
aa(lp262
S'464191630'
p263
aS'Htr3a-Cre_NO152'
p264
aF0.5922901644037096
aFnan
aF0.8035946499103491
aFnan
aFnan
aa(lp265
S'489731121'
p266
aS'Nr5a1-Cre'
p267
aF0.37745301412584925
aF0.08086679024792191
aF0.5253914020558789
aF0.6104558644482432
aF0.6553721661667414
aa(lp268
S'522152249'
p269
aS'Ntsr1-Cre_GN220'
p270
aF0.43073760621517454
aF0.2552056301818608
aF0.6994327267024076
aF0.7131677210930734
aF0.4247530795299156
aa(lp271
S'556363725'
p272
aS'Chrna2-Cre_OE25'
p273
aF0.724585243007088
aFnan
aF0.4530158277454208
aFnan
aFnan
aa(lp274
S'485958978'
p275
aS'Cux2-CreERT2'
p276
aF0.4282208259514519
aF0.1082072296180481
aF0.6698036979122522
aF0.7093180513437609
aF0.6782131348885811
aa(lp277
S'488683425'
p278
aS'Rbp4-Cre_KL100'
p279
aF0.8537917671575986
aFnan
aF0.870920658633155
aFnan
aFnan
aa(lp280
S'479225294'
p281
aS'Rorb-IRES2-Cre-D'
p282
aF0.6168962088083757
aFnan
aF0.5181592410692343
aFnan
aFnan
aa(lp283
S'482649712'
p284
aS'Htr3a-Cre_NO152'
p285
aF0.6578473164615289
aFnan
aF0.9264764109714441
aFnan
aFnan
aa(lp286
S'318808427'
p287
aS'Nr5a1-Cre'
p288
aF0.4000380425445999
aFnan
aF0.729635788318169
aFnan
aFnan
aa(lp289
S'502999078'
p290
aS'Cux2-CreERT2'
p291
aF0.31356762326442394
aFnan
aF0.13403031419126998
aFnan
aFnan
aa(lp292
S'324032509'
p293
aS'Rorb-IRES2-Cre-D'
p294
aF0.4533530994467988
aF0.3916393182163169
aF0.41244587233859076
aF0.514618473480001
aF0.5403764833338537
aa(lp295
S'482516631'
p296
aS'Pvalb-IRES-Cre'
p297
aF0.6973140903386935
aF0.5723646056676259
aF0.7198672619349106
aF0.5982136763775319
aF0.6702553810764184
aa(lp298
S'569477234'
p299
aS'Chrna2-Cre_OE25'
p300
aF0.2996928351674011
aF0.3038963486397182
aF0.60643511566485
aF0.651747476725951
aF0.0
aa(lp301
S'479508018'
p302
aS'Rorb-IRES2-Cre-D'
p303
aF0.3250871131302314
aF0.23073194256920526
aF0.7910608907773765
aF0.7965033535209353
aF0.7762245573650258
aa(lp304
S'504643398'
p305
aS'Cux2-CreERT2'
p306
aF0.7323347238610077
aFnan
aF0.6097966190773113
aFnan
aFnan
aa(lp307
S'476764144'
p308
aS'Sst-IRES-Cre'
p309
aF0.20651953995455954
aFnan
aF0.1915664322670754
aFnan
aFnan
aa(lp310
S'526951157'
p311
aS'Ctgf-2A-dgCre'
p312
aF0.7957020679406734
aFnan
aF0.5754884029555191
aFnan
aFnan
aa(lp313
S'397353539'
p314
aS'Nr5a1-Cre'
p315
aF0.40968850486889435
aFnan
aF0.6828283837751756
aFnan
aFnan
aa(lp316
S'479225080'
p317
aS'Rorb-IRES2-Cre-D'
p318
aF0.5285993482977278
aF0.6788384438600217
aF0.581462530997528
aF0.6110519840192502
aF0.44689965318749225
aa(lp319
S'490283519'
p320
aS'Scnn1a-Tg2-Cre'
p321
aF0.4190751702813206
aF0.3550299568713365
aF0.41673466051678476
aF0.42735861819308935
aF0.0
aa(lp322
S'570459682'
p323
aS'Chat-IRES-Cre-neo'
p324
aF0.5809480196571356
aFnan
aF0.8318303700522066
aFnan
aFnan
aa(lp325
S'515202564'
p326
aS'Scnn1a-Tg3-Cre'
p327
aF0.4024194386618109
aFnan
aF0.3212081531958366
aFnan
aFnan
aa(lp328
S'481127348'
p329
aS'Pvalb-IRES-Cre'
p330
aF0.8727975439907685
aFnan
aF0.9638813690719822
aFnan
aFnan
aa(lp331
S'484770879'
p332
aS'Rorb-IRES2-Cre-D'
p333
aF0.5577966789103342
aFnan
aF0.7277231473928978
aFnan
aFnan
aa(lp334
S'504608602'
p335
aS'Sst-IRES-Cre'
p336
aF0.3826115193457928
aF0.3923696215725045
aF0.47269875075442697
aF0.4763479766076214
aF0.545675336187942
aa(lp337
S'566305266'
p338
aS'Nkx2-1-CreERT2'
p339
aF0.9656044352113381
aF0.9193341494960162
aF0.9229535396983195
aF0.9614913827866692
aF0.9181436454443769
aa(lp340
S'490205998'
p341
aS'Scnn1a-Tg2-Cre'
p342
aF0.44791923224420876
aF0.11226006177730297
aF0.720451785091631
aF0.7287163821779602
aF0.5437533659264148
aa(lp343
S'480273887'
p344
aS'Rorb-IRES2-Cre-D'
p345
aF0.5388100672391338
aF0.4341433949920288
aF0.2861693441172184
aF0.3879411161354774
aF0.33660443310862526
aa(lp346
S'481093525'
p347
aS'Pvalb-IRES-Cre'
p348
aF0.8616971359027426
aFnan
aF0.9761027192257155
aFnan
aFnan
aa(lp349
S'501570114'
p350
aS'Vip-IRES-Cre'
p351
aF0.6463484016570114
aF0.6460577409670935
aF0.7344788383267222
aF0.8274459879766328
aF0.8160808961142132
aa(lp352
S'471789504'
p353
aS'Ntsr1-Cre_GN220'
p354
aF0.47560364478104167
aFnan
aF0.7631476140689455
aFnan
aFnan
aa(lp355
S'500966656'
p356
aS'Sst-IRES-Cre'
p357
aF0.7714190582253034
aFnan
aF0.7169850150697464
aFnan
aFnan
aa(lp358
S'482690728'
p359
aS'Sst-IRES-Cre'
p360
aF0.9107366823671383
aFnan
aF0.934085004157754
aFnan
aFnan
aa(lp361
S'480778441'
p362
aS'Rorb-IRES2-Cre-D'
p363
aF0.5782342014738483
aFnan
aF0.6055776029515637
aFnan
aFnan
aa(lp364
S'514767977'
p365
aS'Vip-IRES-Cre'
p366
aF0.7162555423114754
aFnan
aF0.7804637444273497
aFnan
aFnan
aa(lp367
S'480999763'
p368
aS'Htr3a-Cre_NO152'
p369
aF0.6933161225521529
aF0.7180465029689239
aF0.768867551460371
aF0.8242042493087699
aF0.7799919288171766
aa(lp370
S'517319635'
p371
aS'Cux2-CreERT2'
p372
aF0.5711604146708096
aFnan
aF0.8223580212839751
aFnan
aFnan
aa(lp373
S'579981789'
p374
aS'Ndnf-IRES2-dgCre'
p375
aF0.7101372203991901
aF0.5449430316659275
aF0.8607115531350003
aF0.8617683119318691
aF0.5657296842849764
aa(lp376
S'471131311'
p377
aS'Rbp4-Cre_KL100'
p378
aF0.7691488815850843
aF0.7085647467974416
aF0.594989712405791
aF0.7084953503177391
aF0.5333975714747877
aa(lp379
S'485579168'
p380
aS'Rbp4-Cre_KL100'
p381
aF0.22811723064394013
aF0.05656884411492593
aF0.42426371267049234
aF0.4790274586091121
aF0.5450024655561422
aa(lp382
S'325919795'
p383
aS'Rbp4-Cre_KL100'
p384
aF0.35480190045866516
aFnan
aF0.5226067946722159
aFnan
aFnan
aa(lp385
S'510106222'
p386
aS'Ctgf-2A-dgCre'
p387
aF0.6979618947067222
aF0.5204311436661333
aF0.7174236006306633
aF0.6669772892783004
aF0.6311638608237758
aa(lp388
S'468120757'
p389
aS'Scnn1a-Tg3-Cre'
p390
aF0.27783415502941283
aF0.04606166399011354
aF0.5535326394857939
aF0.58924462030613
aFnan
aa(lp391
S'526950199'
p392
aS'Ctgf-2A-dgCre'
p393
aF0.16134445195029837
aFnan
aF0.4610136144909081
aFnan
aFnan
aa(lp394
S'569730838'
p395
aS'Chrna2-Cre_OE25'
p396
aF0.2699548729652897
aFnan
aF0.34980120589647806
aFnan
aFnan
aa(lp397
S'487358945'
p398
aS'Cux2-CreERT2'
p399
aF0.4024430811189111
aF0.10656696093495083
aF0.6592446179755321
aF0.654619645777001
aF0.6189582623136094
aa(lp400
S'491030723'
p401
aS'Sst-IRES-Cre'
p402
aF0.6046168284418182
aFnan
aF0.7861500345186199
aFnan
aFnan
aa(lp403
S'467003163'
p404
aS'Rorb-IRES2-Cre-D'
p405
aF0.39566093013886877
aF0.16834125064349192
aF0.8470490320891267
aF0.8647636430954019
aF0.7173674171897976
aa(lp406
S'323777372'
p407
aS'Scnn1a-Tg3-Cre'
p408
aF0.5282922692964306
aFnan
aF0.4585056456596205
aFnan
aFnan
aa(lp409
S'476056333'
p410
aS'Scnn1a-Tg2-Cre'
p411
aF0.7032799618369957
aFnan
aF0.5544052741703226
aFnan
aFnan
aa(lp412
S'557261437'
p413
aS'Chat-IRES-Cre-neo'
p414
aF0.6208675913466121
aFnan
aF0.7354047608140046
aFnan
aFnan
aa(lp415
S'467831649'
p416
aS'Scnn1a-Tg2-Cre'
p417
aF0.31152747427155825
aFnan
aF0.6854276226479242
aFnan
aFnan
aa(lp418
S'565778331'
p419
aS'Ndnf-IRES2-dgCre'
p420
aF0.7411317865165886
aF0.7592699992862649
aF0.628432811323438
aF0.6151698520415817
aF0.3767346017977111
aa(lp421
S'318556138'
p422
aS'Pvalb-IRES-Cre'
p423
aF0.9825563886390933
aF0.912377445589904
aF0.9591094549589796
aF0.7949429253408782
aF0.8930201711746897
aa(lp424
S'476457450'
p425
aS'Nr5a1-Cre'
p426
aF0.45430591902497097
aFnan
aF0.5623882466626788
aFnan
aFnan
aa(lp427
S'476053392'
p428
aS'Rorb-IRES2-Cre-D'
p429
aF0.5490088956193386
aFnan
aF0.6138504479907926
aFnan
aFnan
aa(lp430
S'475057898'
p431
aS'Sst-IRES-Cre'
p432
aF0.8749938565490358
aF0.8947737798805522
aF0.7976062293311631
aF0.822117794304927
aF0.8701985254125357
aa(lp433
S'502887600'
p434
aS'Rorb-IRES2-Cre-D'
p435
aF0.628969385524102
aF0.6184732119601266
aF0.5561505226274454
aF0.5100163983063761
aF0.3961238740090862
aa(lp436
S'485912047'
p437
aS'Cux2-CreERT2'
p438
aF0.6522071330582877
aFnan
aF0.7305907883751868
aFnan
aFnan
aa(lp439
S'480268803'
p440
aS'Rorb-IRES2-Cre-D'
p441
aF0.6577428769983469
aF0.6103712367690337
aF0.6636166417055874
aF0.6825233180608016
aF0.508575861211913
aa(lp442
S'486893033'
p443
aS'Scnn1a-Tg3-Cre'
p444
aF0.6760854233894096
aF0.4353505187791416
aF0.441028160284439
aF0.5296552952129118
aF0.4904176605919999
aa(lp445
S'513593674'
p446
aS'Cux2-CreERT2'
p447
aF0.6053461353732733
aF0.2699724990636038
aF0.8444716126486268
aF0.8349936827696647
aF0.655866482268028
aa(lp448
S'322761772'
p449
aS'Rorb-IRES2-Cre-D'
p450
aF0.6659602259376405
aFnan
aF0.6501815396122737
aFnan
aFnan
aa(lp451
S'475622793'
p452
aS'Htr3a-Cre_NO152'
p453
aF0.32863414476676767
aF0.29965185250049947
aF0.8523984032338964
aF0.8553842639414789
aF0.8310051912750567
aa(lp454
S'515056927'
p455
aS'Scnn1a-Tg3-Cre'
p456
aF0.6651148636830827
aFnan
aF0.6788959794915982
aFnan
aFnan
aa(lp457
S'521938313'
p458
aS'Cux2-CreERT2'
p459
aF0.7788487594248473
aFnan
aF0.7191785805011127
aFnan
aFnan
aa(lp460
S'480087928'
p461
aS'Rorb-IRES2-Cre-D'
p462
aF0.14962745722976867
aF0.14962745722976867
aF0.8166927916201419
aF0.806119968646131
aF0.17544582443998497
aa(lp463
S'504635521'
p464
aS'Ctgf-2A-dgCre'
p465
aF0.5518412299778384
aFnan
aF0.4525461453884184
aFnan
aFnan
aa(lp466
S'521399472'
p467
aS'Cux2-CreERT2'
p468
aF0.5034221591598673
aFnan
aF0.49471037685191016
aFnan
aFnan
aa(lp469
S'480647923'
p470
aS'Scnn1a-Tg2-Cre'
p471
aF0.3834938400735639
aF0.3177937264365252
aF0.4340837809413284
aF0.2470464969878716
aF0.26099237321056606
aa(lp472
S'490259892'
p473
aS'Ntsr1-Cre_GN220'
p474
aF0.7966741253043934
aFnan
aF0.5792690463864083
aFnan
aFnan
aa(lp475
S'486264574'
p476
aS'Cux2-CreERT2'
p477
aF0.4074243498976176
aFnan
aF0.6592040803945722
aFnan
aFnan
aa(lp478
S'486352114'
p479
aS'Sst-IRES-Cre'
p480
aF0.858558623807473
aF0.7168735338630279
aF0.9534208460953503
aF0.9646038849377253
aF0.948326546608088
aa(lp481
S'526943222'
p482
aS'Ndnf-IRES2-dgCre'
p483
aF0.6908899030993927
aFnan
aF0.8262286258962382
aFnan
aFnan
aa(lp484
S'575774870'
p485
aS'Chat-IRES-Cre-neo'
p486
aF0.566589943921238
aFnan
aF0.8376109565054911
aFnan
aFnan
aa(lp487
S'386970660'
p488
aS'Nr5a1-Cre'
p489
aF0.48748263377870954
aFnan
aF0.4944547876460804
aFnan
aFnan
aa(lp490
S'323452245'
p491
aS'Sst-IRES-Cre'
p492
aF0.1792553589439859
aFnan
aF0.5839997752046954
aFnan
aFnan
aa(lp493
S'513832252'
p494
aS'Scnn1a-Tg3-Cre'
p495
aF0.7399787930459988
aF0.7000009121372588
aF0.4285821125629971
aF0.43020001684573533
aF0.3313629736544832
aa(lp496
S'328015342'
p497
aS'Sst-IRES-Cre'
p498
aF0.6860921097663011
aF0.6142181798216971
aF0.6649453520617559
aF0.690673713634737
aF0.7509583231084231
aa(lp499
S'313861677'
p500
aS'Rorb-IRES2-Cre-D'
p501
aF0.5699517869316695
aF0.6135177604645943
aF0.6947685838663593
aF0.6925791869281123
aF0.0
aa(lp502
S'526531616'
p503
aS'Ndnf-IRES2-dgCre'
p504
aF0.8023331732663583
aFnan
aF0.8553933087592159
aFnan
aFnan
aa(lp505
S'476266853'
p506
aS'Scnn1a-Tg3-Cre'
p507
aF0.5411710040501654
aFnan
aF0.7973916527028834
aFnan
aFnan
aa(lp508
S'479179020'
p509
aS'Rorb-IRES2-Cre-D'
p510
aF0.6615526088009193
aF0.5019711917779625
aF0.7766918913620305
aF0.7910604965723291
aF0.7070866339986382
aa(lp511
S'473593847'
p512
aS'Sst-IRES-Cre'
p513
aF0.7711971825224125
aF0.5825974329534531
aF0.7988799793412069
aF0.5715187183175592
aF0.8018810234699355
aa(lp514
S'566563603'
p515
aS'Nkx2-1-CreERT2'
p516
aF0.6342685266321589
aF0.5455639359671963
aF0.5422044324980632
aF0.4708320477110479
aF0.5497045091462461
aa(lp517
S'491026389'
p518
aS'Sst-IRES-Cre'
p519
aF0.5307670134611099
aFnan
aF0.5462351930883691
aFnan
aFnan
aa(lp520
S'563535101'
p521
aS'Chat-IRES-Cre-neo'
p522
aF0.5718476271838043
aFnan
aF0.7188212062318445
aFnan
aFnan
aa(lp523
S'567354967'
p524
aS'Chrna2-Cre_OE25'
p525
aF0.49117305919885024
aF0.6299634678110799
aF0.6186607093531166
aF0.7049943439018965
aF0.4636817486192412
aa(lp526
S'476686112'
p527
aS'Sst-IRES-Cre'
p528
aF0.7486908752241693
aF0.7312265394141944
aF0.6902138547081389
aF0.7030259447253462
aF0.4522982531437573
aa(lp529
S'466632464'
p530
aS'Ntsr1-Cre_GN220'
p531
aF0.4866385568867473
aFnan
aF0.7149828457250007
aFnan
aFnan
aa(lp532
S'504647603'
p533
aS'Rorb-IRES2-Cre-D'
p534
aF0.6147908855831243
aFnan
aF0.6379051635460196
aFnan
aFnan
aa(lp535
S'475751758'
p536
aS'Scnn1a-Tg2-Cre'
p537
aF0.30767063220073365
aFnan
aF0.5937420049158286
aFnan
aFnan
aa(lp538
S'314529406'
p539
aS'Rorb-IRES2-Cre-D'
p540
aF0.45594262666092866
aFnan
aF0.43088361356907773
aFnan
aFnan
aa(lp541
S'477490421'
p542
aS'Pvalb-IRES-Cre'
p543
aF0.8818458643627644
aF0.7324520902920617
aF0.9826785876799529
aF0.9645908347161365
aF0.9867704592514231
aa(lp544
S'475619045'
p545
aS'Htr3a-Cre_NO152'
p546
aF0.17437809457555528
aF0.34067539444856604
aF0.6796980355175747
aF0.7247592708286936
aF0.5645046268876652
aa(lp547
S'475848827'
p548
aS'Rorb-IRES2-Cre-D'
p549
aF0.6138042974828141
aFnan
aF0.2707377427218379
aFnan
aFnan
aa(lp550
S'475585413'
p551
aS'Htr3a-Cre_NO152'
p552
aF0.4349937873923462
aF0.3543659876556126
aF0.9117589651364909
aF0.8996840484371379
aF0.8513501575331001
aa(lp553
S'581138223'
p554
aS'Nkx2-1-CreERT2'
p555
aF0.6975004654838985
aF0.4948504498132491
aF0.7868429444954692
aF0.7669977332222917
aF0.6061879176954974
aa(lp556
S'553219924'
p557
aS'Chat-IRES-Cre-neo'
p558
aF0.5855481713160083
aFnan
aF0.8611674979034082
aFnan
aFnan
aa(lp559
S'471819401'
p560
aS'Ntsr1-Cre_GN220'
p561
aF0.559798184674905
aF0.24753469350607868
aF0.7015506279719688
aF0.7468849601154492
aF0.6221975084317649
aa(lp562
S'505476170'
p563
aS'Cux2-CreERT2'
p564
aF0.6635374021742688
aFnan
aF0.6423663014511708
aFnan
aFnan
aa(lp565
S'485578197'
p566
aS'Rbp4-Cre_KL100'
p567
aF0.4537884460747757
aF0.17486237966376628
aF0.7686848013930621
aF0.7950452816778131
aF0.5260031875296346
aa(lp568
S'478716304'
p569
aS'Sst-IRES-Cre'
p570
aF0.7395467965377021
aFnan
aF0.6800333255582703
aFnan
aFnan
aa(lp571
S'330080937'
p572
aS'Pvalb-IRES-Cre'
p573
aF0.8315302208881038
aFnan
aF0.9657382595607856
aFnan
aFnan
aa(lp574
S'487306716'
p575
aS'Pvalb-IRES-Cre'
p576
aF0.43884104037530075
aF0.4045745045056244
aF0.4310221397566929
aF0.3981036899006058
aF0.3127430342988913
aa(lp577
S'485570372'
p578
aS'Nr5a1-Cre'
p579
aF0.4347091753458878
aFnan
aF0.48652775030476053
aFnan
aFnan
aa(lp580
S'486176465'
p581
aS'Rbp4-Cre_KL100'
p582
aF0.5973167380951523
aFnan
aF0.45270264427898405
aFnan
aFnan
aa(lp583
S'490485142'
p584
aS'Ntsr1-Cre_GN220'
p585
aF0.32485342298457953
aFnan
aF0.7353740987642179
aFnan
aFnan
aa(lp586
S'326734770'
p587
aS'Htr3a-Cre_NO152'
p588
aF0.6705015211155915
aFnan
aF0.8306123560617189
aFnan
aFnan
aa(lp589
S'476099282'
p590
aS'Sst-IRES-Cre'
p591
aF0.5775997494238386
aFnan
aF0.7854581015915261
aFnan
aFnan
aa(lp592
S'475894121'
p593
aS'Pvalb-IRES-Cre'
p594
aF0.9764443842098368
aF0.764189710091718
aF0.9604846278294255
aF0.9659144319941243
aF0.9753447500059772
aa(lp595
S'324053519'
p596
aS'Rorb-IRES2-Cre-D'
p597
aF0.4777096146402593
aF0.5199910057834004
aF0.5281613790860364
aF0.5620366870655467
aF0.3601320954550983
aa(lp598
S'488708322'
p599
aS'Pvalb-IRES-Cre'
p600
aF0.641308644258881
aFnan
aF0.9232299123987725
aFnan
aFnan
aa(lp601
S'478947222'
p602
aS'Pvalb-IRES-Cre'
p603
aF0.10029491017541084
aFnan
aF0.1837207143817607
aFnan
aFnan
aa(lp604
S'561517025'
p605
aS'Nkx2-1-CreERT2'
p606
aF0.952449273479202
aFnan
aF0.9528890732424622
aFnan
aFnan
aa(lp607
S'480351780'
p608
aS'Rorb-IRES2-Cre-D'
p609
aF0.6100749344176428
aF0.6146777643639617
aF0.31502205935155625
aF0.49001923870649566
aF0.38221673745126067
aa(lp610
S'329557305'
p611
aS'Rorb-IRES2-Cre-D'
p612
aF0.3746705879017082
aFnan
aF0.7138792682679937
aFnan
aFnan
aa(lp613
S'560924223'
p614
aS'Chat-IRES-Cre-neo'
p615
aF0.47600726262366244
aFnan
aF0.6511811361265984
aFnan
aFnan
aa(lp616
S'502269786'
p617
aS'Nr5a1-Cre'
p618
aF0.513774289612769
aFnan
aF0.784220532988941
aFnan
aFnan
aa(lp619
S'324025297'
p620
aS'Rorb-IRES2-Cre-D'
p621
aF0.5357077099314494
aF0.5310953959928739
aF0.4734338503629443
aF0.542342466158071
aF0.5447585341335109
aa(lp622
S'514824979'
p623
aS'Htr3a-Cre_NO152'
p624
aF0.8458366312848962
aF0.802038689379282
aF0.7759035258657913
aF0.8391612363764784
aF0.7295089788678254
aa(lp625
S'478793814'
p626
aS'Pvalb-IRES-Cre'
p627
aF0.9339039634321173
aFnan
aF0.9670602297752064
aFnan
aFnan
aa(lp628
S'515249852'
p629
aS'Rbp4-Cre_KL100'
p630
aF0.6176730136568812
aFnan
aF0.5194338714343275
aFnan
aFnan
aa(lp631
S'485880739'
p632
aS'Rbp4-Cre_KL100'
p633
aF0.5816209131323443
aF0.5762006390383816
aF0.6735687943872664
aF0.7137610933133834
aF0.3949227959403522
aa(lp634
S'523478821'
p635
aS'Vip-IRES-Cre'
p636
aF0.40503791448602017
aFnan
aF0.4478153116108472
aFnan
aFnan
aa(lp637
S'502193385'
p638
aS'Nr5a1-Cre'
p639
aF0.657868101555307
aF0.49713517999631185
aF0.6290791819626118
aF0.6496781350715165
aF0.39943650086700516
aa(lp640
S'515059388'
p641
aS'Scnn1a-Tg3-Cre'
p642
aF0.6366731237708884
aF0.5747547776133611
aF0.4893267416459304
aF0.46290083255595377
aF0.2350308282424825
aa(lp643
S'486175203'
p644
aS'Cux2-CreERT2'
p645
aF0.0
aFnan
aF0.0
aFnan
aFnan
aa(lp646
S'522147522'
p647
aS'Ntsr1-Cre_GN220'
p648
aF0.6731155279614426
aFnan
aF0.7685763080024269
aFnan
aFnan
aa(lp649
S'486198953'
p650
aS'Cux2-CreERT2'
p651
aF0.5021998187807828
aF0.21838796587750586
aF0.6380995797840869
aF0.7133370930735763
aF0.4898421191537384
aa(lp652
S'507121819'
p653
aS'Rorb-IRES2-Cre-D'
p654
aF0.48672515419964235
aFnan
aF0.3284621237973804
aFnan
aFnan
aa(lp655
S'532355382'
p656
aS'Ctgf-2A-dgCre'
p657
aF0.6831687513241805
aF0.6651005813738405
aF0.5503134922822697
aF0.6121687169674669
aF0.5076271083428668
aa(lp658
S'488359338'
p659
aS'Rbp4-Cre_KL100'
p660
aF0.5026127489739033
aFnan
aF0.7155186121569972
aFnan
aFnan
aa(lp661
S'464212183'
p662
aS'Sst-IRES-Cre'
p663
aF0.7449443917905662
aF0.7085877916498471
aF0.8943618439319726
aF0.8945488891738368
aF0.8195966647996753
aa(lp664
S'502808270'
p665
aS'Cux2-CreERT2'
p666
aF0.44865789898903574
aF0.5838733357743754
aF0.4196455481027693
aF0.5011266035355942
aF0.33044481242543117
aa(lp667
S'480718588'
p668
aS'Rbp4-Cre_KL100'
p669
aF0.4978217380057513
aFnan
aF0.6085365246849478
aFnan
aFnan
aa(lp670
S'486756093'
p671
aS'Cux2-CreERT2'
p672
aF0.4919976039601656
aFnan
aF0.7992489088010893
aFnan
aFnan
aa(lp673
S'476263004'
p674
aS'Scnn1a-Tg3-Cre'
p675
aF0.49582556017693663
aF0.3484106443307687
aF0.8302867088837059
aF0.8426220920840893
aF0.5970500284145438
aa(lp676
S'479220013'
p677
aS'Htr3a-Cre_NO152'
p678
aF0.4497173811306346
aFnan
aF0.8558535236859557
aFnan
aFnan
aa(lp679
S'526801742'
p680
aS'Ndnf-IRES2-dgCre'
p681
aF0.798077883142199
aFnan
aF0.7164110417300578
aFnan
aFnan
aa(lp682
S'471087830'
p683
aS'Pvalb-IRES-Cre'
p684
aF0.9160387805237568
aF0.7238117966633493
aF0.9775770874178861
aF0.9343450461485511
aF0.9925415835699869
aa(lp685
S'508275137'
p686
aS'Ntsr1-Cre_GN220'
p687
aF0.36764570209068453
aFnan
aF0.701763277271466
aFnan
aFnan
aa(lp688
S'478110866'
p689
aS'Htr3a-Cre_NO152'
p690
aF0.7526943707004171
aFnan
aF0.7341554141564138
aFnan
aFnan
aa(lp691
S'486510127'
p692
aS'Nr5a1-Cre'
p693
aF0.614301498449384
aFnan
aF0.8535544432502262
aFnan
aFnan
aa(lp694
S'539742766'
p695
aS'Ntsr1-Cre_GN220'
p696
aF0.43952533581226916
aFnan
aF0.7543840877172889
aFnan
aFnan
aa(lp697
S'479218494'
p698
aS'Htr3a-Cre_NO152'
p699
aF0.618762570897885
aFnan
aF0.9553713312599051
aFnan
aFnan
aa(lp700
S'554807988'
p701
aS'Nkx2-1-CreERT2'
p702
aF0.9151367561533901
aFnan
aF0.8960465358524276
aFnan
aFnan
aa(lp703
S'522108467'
p704
aS'Htr3a-Cre_NO152'
p705
aF0.4893390942915132
aFnan
aF0.6150614093175173
aFnan
aFnan
aa(lp706
S'322297406'
p707
aS'Ntsr1-Cre_GN220'
p708
aF0.542952329959227
aF0.3600379867047264
aF0.6426286008991167
aF0.681322201707938
aF0.5215136535359777
aa(lp709
S'521409057'
p710
aS'Cux2-CreERT2'
p711
aF0.646506289768162
aFnan
aF0.5922050801067097
aFnan
aFnan
aa(lp712
S'561519381'
p713
aS'Nkx2-1-CreERT2'
p714
aF0.7561227880773799
aF0.5631750024498359
aF0.7871859599939057
aF0.8022912382050736
aF0.7127357023908748
aa(lp715
S'482773968'
p716
aS'Htr3a-Cre_NO152'
p717
aF0.38824133078551987
aFnan
aF0.7151401002605763
aFnan
aFnan
aa(lp718
S'321893798'
p719
aS'Nr5a1-Cre'
p720
aF0.333825565054255
aF0.16262136035102157
aF0.4465440987142379
aF0.48459149178080185
aF0.5828343706820285
aa(lp721
S'475580568'
p722
aS'Sst-IRES-Cre'
p723
aF0.94271467397267
aF0.9574412768316235
aF0.9454359754204456
aF0.8766543559897925
aF0.9664171800422338
aa(lp724
S'488448839'
p725
aS'Ntsr1-Cre_GN220'
p726
aF0.8093279561325308
aFnan
aF0.7607983916743184
aFnan
aFnan
aa(lp727
S'488695444'
p728
aS'Rorb-IRES2-Cre-D'
p729
aF0.7539455091868298
aFnan
aF0.5544449359728192
aFnan
aFnan
aa(lp730
S'327962063'
p731
aS'Htr3a-Cre_NO152'
p732
aF0.531747360101644
aFnan
aF0.6294658798593784
aFnan
aFnan
aa(lp733
S'517977609'
p734
aS'Nr5a1-Cre'
p735
aF0.6553954196722472
aFnan
aF0.6680234511428952
aFnan
aFnan
aa(lp736
S'567320213'
p737
aS'Chrna2-Cre_OE25'
p738
aF0.7686429021563304
aFnan
aF0.7687214753089994
aFnan
aFnan
aa(lp739
S'486146717'
p740
aS'Cux2-CreERT2'
p741
aF0.4219829342767148
aF0.2755307104474953
aF0.38505310272897914
aF0.47393073278587144
aF0.0
aa(lp742
S'320639930'
p743
aS'Rorb-IRES2-Cre-D'
p744
aF0.3496920115587292
aF0.14643719709202896
aF0.6404182885709049
aF0.6619476497789577
aF0.6503659273567426
aa(lp745
S'501736631'
p746
aS'Vip-IRES-Cre'
p747
aF0.4691955879918131
aFnan
aF0.8921917713219866
aFnan
aFnan
aa(lp748
S'476751360'
p749
aS'Sst-IRES-Cre'
p750
aF0.018435710395693795
aFnan
aF0.0708350709998859
aFnan
aFnan
aa(lp751
S'490264167'
p752
aS'Ntsr1-Cre_GN220'
p753
aF0.5157577621639252
aFnan
aF0.6005449049810591
aFnan
aFnan
aa(lp754
S'489930727'
p755
aS'Htr3a-Cre_NO152'
p756
aF0.8391810052051931
aFnan
aF0.9217535996631893
aFnan
aFnan
aa(lp757
S'328549885'
p758
aS'Sst-IRES-Cre'
p759
aF0.40158052004285966
aFnan
aF0.48155171276379727
aFnan
aFnan
aa(lp760
S'480705931'
p761
aS'Rorb-IRES2-Cre-D'
p762
aF0.32877155610815983
aFnan
aF0.7263536875411957
aFnan
aFnan
aa(lp763
S'515511110'
p764
aS'Rbp4-Cre_KL100'
p765
aF0.4288370216108535
aF0.27892733808889897
aF0.6283982077172066
aF0.6193124319482433
aF0.26578770947563723
aa(lp766
S'488501487'
p767
aS'Pvalb-IRES-Cre'
p768
aF0.4685366232781539
aFnan
aF0.6253732238823854
aFnan
aFnan
aa(lp769
S'484515166'
p770
aS'Cux2-CreERT2'
p771
aF0.5250246544301664
aF0.2270355871973705
aF0.8808124907543117
aF0.8816032500684235
aF0.7802713662654986
aa(lp772
S'464198958'
p773
aS'Sst-IRES-Cre'
p774
aF0.6504538304399902
aFnan
aF0.6574992849224022
aFnan
aFnan
aa(lp775
S'569810649'
p776
aS'Vip-IRES-Cre'
p777
aF0.3399257055229824
aF0.3349733184231601
aF0.6140516162561223
aF0.6261202992475801
aF0.4243255911215916
aa(lp778
S'487667205'
p779
aS'Pvalb-IRES-Cre'
p780
aF0.8867790026604095
aFnan
aF0.9733440684747484
aFnan
aFnan
aa(lp781
S'524693113'
p782
aS'Vip-IRES-Cre'
p783
aF0.3740240369865299
aF0.3722082327347495
aF0.5233850379149457
aF0.5603583275094326
aF0.42054049847158403
aa(lp784
S'490626827'
p785
aS'Rorb-IRES2-Cre-D'
p786
aF0.36094194468168134
aFnan
aF0.6763895101009578
aFnan
aFnan
aa(lp787
S'502260112'
p788
aS'Nr5a1-Cre'
p789
aF0.6902426176087622
aFnan
aF0.777248054039478
aFnan
aFnan
aa(lp790
S'485608017'
p791
aS'Rbp4-Cre_KL100'
p792
aF0.5145158570848409
aF0.28503381610084716
aF0.7449731632598885
aF0.7518676027690785
aF0.7437805737724424
aa(lp793
S'324065524'
p794
aS'Rorb-IRES2-Cre-D'
p795
aF0.5987197159191485
aF0.3187201535604254
aF0.7509565917337808
aF0.7755129204322456
aF0.6755724566753534
aa(lp796
S'483101699'
p797
aS'Cux2-CreERT2'
p798
aF0.6431984561162148
aF0.3505331923498993
aF0.6247051413978972
aF0.6282977328597323
aF0.5747476363453493
aa(lp799
S'490718897'
p800
aS'Ntsr1-Cre_GN220'
p801
aF0.35780567037644534
aF0.1577051065383408
aF0.7687366334490974
aF0.7563857766625538
aF0.7860536642919311
aa(lp802
S'501956013'
p803
aS'Ctgf-2A-dgCre'
p804
aF0.5408062432694025
aFnan
aF0.5790294700805059
aFnan
aFnan
aa(lp805
S'475517090'
p806
aS'Sst-IRES-Cre'
p807
aF0.5996600324891904
aF0.7667725635816949
aF0.7541774425595722
aF0.7151417103532175
aF0.779225652805428
aa(lp808
S'577369606'
p809
aS'Chat-IRES-Cre-neo'
p810
aF0.4589998666015929
aF0.5771847777461512
aF0.8394454644800542
aF0.8465705069345815
aF0.5879098219454362
aa(lp811
S'501023852'
p812
aS'Scnn1a-Tg3-Cre'
p813
aF0.699130157462575
aFnan
aF0.7946855263988503
aFnan
aFnan
aa(lp814
S'527579814'
p815
aS'Ndnf-IRES2-dgCre'
p816
aF0.8551766389962415
aF0.5289184323312817
aF0.8831434784860644
aF0.9134221813500962
aF0.8510017111944586
aa(lp817
S'470098860'
p818
aS'Scnn1a-Tg3-Cre'
p819
aF0.625064953824022
aFnan
aF0.5474738621589341
aFnan
aFnan
aa(lp820
S'567399060'
p821
aS'Chrna2-Cre_OE25'
p822
aF0.49380636109549925
aF0.5932078241306439
aF0.6401009440485735
aF0.8452597314529474
aF0.37082301899705916
aa(lp823
S'510114363'
p824
aS'Ctgf-2A-dgCre'
p825
aF0.7118014536185684
aFnan
aF0.831632501343891
aFnan
aFnan
aa(lp826
S'327706437'
p827
aS'Htr3a-Cre_NO152'
p828
aF0.5701725820826293
aFnan
aF0.8910297820308549
aFnan
aFnan
aa(lp829
S'489887491'
p830
aS'Cux2-CreERT2'
p831
aF0.43621097683275734
aFnan
aF0.7934505785813221
aFnan
aFnan
aa(lp832
S'508887004'
p833
aS'Rbp4-Cre_KL100'
p834
aF0.29623885406781514
aFnan
aF0.4569332757017952
aFnan
aFnan
aa(lp835
S'484737013'
p836
aS'Scnn1a-Tg2-Cre'
p837
aF0.5771291149119403
aF0.3608971454896287
aF0.5564488509840271
aF0.6020473025340255
aF0.5969942927644168
aa(lp838
S'336676216'
p839
aS'Pvalb-IRES-Cre'
p840
aF0.6021891341923342
aFnan
aF0.5932684230802817
aFnan
aFnan
aa(lp841
S'485466109'
p842
aS'Sst-IRES-Cre'
p843
aF0.8183919619076748
aF0.8398734138969167
aF0.9394877954567185
aF0.948505821485395
aF0.8850018026914614
aa(lp844
S'516906055'
p845
aS'Cux2-CreERT2'
p846
aF0.9607326720770395
aFnan
aF0.9483812199477889
aFnan
aFnan
aa(lp847
S'484738748'
p848
aS'Scnn1a-Tg2-Cre'
p849
aF0.28537945964161626
aFnan
aF0.4365009701865724
aFnan
aFnan
aa(lp850
S'486132712'
p851
aS'Rbp4-Cre_KL100'
p852
aF0.8539360473326503
aFnan
aF0.7629256474510431
aFnan
aFnan
aa(lp853
S'322246422'
p854
aS'Sst-IRES-Cre'
p855
aF0.6211059693012977
aF0.4910653474018436
aF0.667002287420931
aF0.6380785766014451
aF0.7487497225542428
aa(lp856
S'505202906'
p857
aS'Cux2-CreERT2'
p858
aF0.5158677344841288
aFnan
aF0.7454475991526944
aFnan
aFnan
aa(lp859
S'508980706'
p860
aS'Ntsr1-Cre_GN220'
p861
aF0.4875439495833278
aFnan
aF0.8152776985347685
aFnan
aFnan
aa(lp862
S'313862134'
p863
aS'Sst-IRES-Cre'
p864
aF0.9227955683658475
aF0.8208581322519933
aF0.954210642689939
aF0.9328044879545937
aF0.9195284163653974
aa(lp865
S'517647182'
p866
aS'Scnn1a-Tg2-Cre'
p867
aF0.6888802462827499
aFnan
aF0.4956868182983545
aFnan
aFnan
aa(lp868
S'486108147'
p869
aS'Cux2-CreERT2'
p870
aF0.4974870199516109
aF0.11498127232446902
aF0.6693059019784732
aF0.6835805294107358
aF0.47362470577171895
aa(lp871
S'325480372'
p872
aS'Scnn1a-Tg2-Cre'
p873
aF0.60773763787294
aFnan
aF0.5621503094489104
aFnan
aFnan
aa(lp874
S'321923492'
p875
aS'Nr5a1-Cre'
p876
aF0.5009037338234738
aFnan
aF0.6184406217748374
aFnan
aFnan
aa(lp877
S'397354239'
p878
aS'Nr5a1-Cre'
p879
aF0.47329377365318553
aFnan
aF0.5385291258822372
aFnan
aFnan
aa(lp880
S'490626718'
p881
aS'Rorb-IRES2-Cre-D'
p882
aF0.5619713204414222
aFnan
aF0.9376264550460005
aFnan
aFnan
aa(lp883
S'478949560'
p884
aS'Pvalb-IRES-Cre'
p885
aF0.900984442099035
aF0.8172534173893342
aF0.9436545028774987
aF0.9267964693330082
aF0.9145417373779113
aa(lp886
S'469801569'
p887
aS'Pvalb-IRES-Cre'
p888
aF0.8835654150385855
aFnan
aF0.960050382566774
aFnan
aFnan
aa(lp889
S'325853048'
p890
aS'Rbp4-Cre_KL100'
p891
aF0.6648771955686178
aF0.6359900893774794
aF0.36669186686001026
aF0.21469500455261692
aF0.4698894454426284
aa(lp892
S'490790207'
p893
aS'Rbp4-Cre_KL100'
p894
aF0.7728754073531436
aF0.7282198314370443
aF0.7121830399598119
aF0.7342403072237317
aF0.6059600461940081
aa(lp895
S'486753754'
p896
aS'Cux2-CreERT2'
p897
aF0.608084144898152
aFnan
aF0.7664015616489371
aFnan
aFnan
aa(lp898
S'508566646'
p899
aS'Rbp4-Cre_KL100'
p900
aF0.5620720551955362
aFnan
aF0.3006434852036117
aFnan
aFnan
aa(lp901
S'488676149'
p902
aS'Ntsr1-Cre_GN220'
p903
aF0.679286204945319
aF0.17075657819482545
aF0.8364849177405506
aF0.8749218052582348
aF0.8352351445894517
aa(lp904
S'489885173'
p905
aS'Nr5a1-Cre'
p906
aF0.3724267195352893
aFnan
aF0.6643183235405781
aFnan
aFnan
aa(lp907
S'566466395'
p908
aS'Chrna2-Cre_OE25'
p909
aF0.7541231377863628
aFnan
aF0.6361195354624595
aFnan
aFnan
aa(lp910
S'502665074'
p911
aS'Ctgf-2A-dgCre'
p912
aF0.709020224123495
aFnan
aF0.55707761290361
aFnan
aFnan
aa(lp913
S'485455285'
p914
aS'Sst-IRES-Cre'
p915
aF0.625879085100339
aFnan
aF0.832460543906784
aFnan
aFnan
aa(lp916
S'581153862'
p917
aS'Nkx2-1-CreERT2'
p918
aF0.6774382764591963
aFnan
aF0.7061322534877537
aFnan
aFnan
aa(lp919
S'475622680'
p920
aS'Htr3a-Cre_NO152'
p921
aF0.802924832734666
aF0.6997610295938655
aF0.8981719838400103
aF0.9064792940592301
aF0.6446686465600651
aa(lp922
S'562381417'
p923
aS'Chrna2-Cre_OE25'
p924
aF0.7318051643495096
aFnan
aF0.769828143680889
aFnan
aFnan
aa(lp925
S'480171386'
p926
aS'Rorb-IRES2-Cre-D'
p927
aF0.5679374306741217
aF0.5651495726383952
aF0.4908532748408693
aF0.5707439304780224
aF0.4391395807245161
aa(lp928
S'507918877'
p929
aS'Ntsr1-Cre_GN220'
p930
aF0.47844001955064713
aFnan
aF0.6693029889994072
aFnan
aFnan
aa(lp931
S'479219923'
p932
aS'Htr3a-Cre_NO152'
p933
aF0.6372587145785915
aFnan
aF0.6518929581617416
aFnan
aFnan
aa(lp934
S'479225052'
p935
aS'Rorb-IRES2-Cre-D'
p936
aF0.12166039980684638
aFnan
aF0.5791066261921847
aFnan
aFnan
aa(lp937
S'516916566'
p938
aS'Cux2-CreERT2'
p939
aF0.0
aF0.0
aF0.433970549873333
aF0.43755008172601145
aF0.2505381901182659
aa(lp940
S'500859045'
p941
aS'Rorb-IRES2-Cre-D'
p942
aF0.7104316090849331
aFnan
aF0.8395204312485666
aFnan
aFnan
aa(lp943
S'569623233'
p944
aS'Ndnf-IRES2-dgCre'
p945
aF0.922175714535585
aF0.6961230211394999
aF0.9248235208994935
aF0.9523032735156218
aF0.907442635158613
aa(lp946
S'485287282'
p947
aS'Sst-IRES-Cre'
p948
aF0.5700698591790052
aFnan
aF0.6363034313621859
aFnan
aFnan
aa(lp949
S'490149337'
p950
aS'Htr3a-Cre_NO152'
p951
aF0.19625251389677295
aF0.18624225160985364
aF0.2607130778027382
aF0.2903800888503217
aF0.44890240597796055
aa(lp952
S'485835016'
p953
aS'Rbp4-Cre_KL100'
p954
aF0.7061477658117485
aF0.4120797055290096
aF0.5531631614240716
aF0.607543774410728
aF0.45020098637731637
aa(lp955
S'566463606'
p956
aS'Chrna2-Cre_OE25'
p957
aF0.6745268277335025
aF0.7395847058083396
aF0.6413952401764136
aF0.6198394549512989
aF0.6523104395576017
aa(lp958
S'485468180'
p959
aS'Nr5a1-Cre'
p960
aF0.5744708214945826
aF0.4280584111198651
aF0.5313060868936226
aF0.6022867612116307
aF0.0
aa(lp961
S'473011949'
p962
aS'Sst-IRES-Cre'
p963
aF0.2322348907916117
aF0.20426898287215994
aF0.5076096469720053
aF0.5472329791954584
aF0.4196529117956984
aa(lp964
S'490259231'
p965
aS'Ntsr1-Cre_GN220'
p966
aF0.5462548297117271
aFnan
aF0.7257700078099458
aFnan
aFnan
aa(lp967
S'486029942'
p968
aS'Cux2-CreERT2'
p969
aF0.5933201079661845
aF0.31051088054648296
aF0.7269237204925014
aF0.7602894837767104
aF0.5323493943888221
aa(lp970
S'501566512'
p971
aS'Ntsr1-Cre_GN220'
p972
aF0.6290964987429254
aFnan
aF0.7295289635736241
aFnan
aFnan
aa(lp973
S'488675026'
p974
aS'Ntsr1-Cre_GN220'
p975
aF0.6907349670366559
aF0.3490510711424192
aF0.6420336098465859
aF0.7055078948629461
aF0.6570118516656193
aa(lp976
S'313860745'
p977
aS'Rorb-IRES2-Cre-D'
p978
aF0.334754513234665
aFnan
aF0.42461287998870084
aFnan
aFnan
aa(lp979
S'566760952'
p980
aS'Nkx2-1-CreERT2'
p981
aF0.5859559988081139
aFnan
aF0.8002331815156013
aFnan
aFnan
aa(lp982
S'485610263'
p983
aS'Rbp4-Cre_KL100'
p984
aF0.6302370299107466
aFnan
aF0.513147811280842
aFnan
aFnan
aa(lp985
S'517077548'
p986
aS'Ntsr1-Cre_GN220'
p987
aF0.32151453553100945
aFnan
aF0.7108704242917913
aFnan
aFnan
aa(lp988
S'474652473'
p989
aS'Htr3a-Cre_NO152'
p990
aF0.42216543189139344
aFnan
aF0.8703046439283776
aFnan
aFnan
aa(lp991
S'341442651'
p992
aS'Pvalb-IRES-Cre'
p993
aF0.9833176789411568
aFnan
aF0.965357327784805
aFnan
aFnan
aa(lp994
S'485837504'
p995
aS'Rorb-IRES2-Cre-D'
p996
aF0.420808830800746
aF0.2782532429279985
aF0.4401500190944936
aF0.47155880650701815
aF0.5348375017363737
aa(lp997
S'530235049'
p998
aS'Ndnf-IRES2-dgCre'
p999
aF0.7284372100598039
aF0.7148977586934462
aF0.8699897129451192
aF0.8706198810717429
aF0.8128963934167588
aa(lp1000
S'328876201'
p1001
aS'Sst-IRES-Cre'
p1002
aF0.5323296638432227
aFnan
aF0.5831769027076167
aFnan
aFnan
aa(lp1003
S'478107198'
p1004
aS'Htr3a-Cre_NO152'
p1005
aF0.467690701690196
aF0.48615695730511316
aF0.5894792215364644
aF0.6376582198220851
aF0.4560612389496811
aa(lp1006
S'314800921'
p1007
aS'Rorb-IRES2-Cre-D'
p1008
aF0.27526668641725927
aF0.21858056506105417
aF0.6060805306502746
aF0.596879572862267
aF0.1783012548213045
aa(lp1009
S'500879695'
p1010
aS'Pvalb-IRES-Cre'
p1011
aF0.9030230165830878
aFnan
aF0.8847995922675911
aFnan
aFnan
aa(lp1012
S'526939383'
p1013
aS'Ndnf-IRES2-dgCre'
p1014
aF0.8371617005820738
aFnan
aF0.9037733086023777
aFnan
aFnan
aa(lp1015
S'324466858'
p1016
aS'Sst-IRES-Cre'
p1017
aF0.5098323291579976
aF0.449757104234523
aF0.6022667337575689
aF0.6453453094127158
aF0.7559988728731678
aa(lp1018
S'504567071'
p1019
aS'Cux2-CreERT2'
p1020
aF0.44283041741947626
aF0.2103076861016272
aF0.6385358420346089
aF0.6051926301108715
aF0.6397576615806043
aa(lp1021
S'486560376'
p1022
aS'Cux2-CreERT2'
p1023
aF0.5525003894618155
aFnan
aF0.7234455542672732
aFnan
aFnan
aa(lp1024
S'566761793'
p1025
aS'Chrna2-Cre_OE25'
p1026
aF0.4950548247462154
aF0.5496307145748301
aF0.67335570149048
aF0.7507767931182495
aF0.6318503035351168
aa(lp1027
S'487400838'
p1028
aS'Pvalb-IRES-Cre'
p1029
aF0.9677303803362257
aFnan
aF0.9366135221982478
aFnan
aFnan
aa(lp1030
S'486052980'
p1031
aS'Rbp4-Cre_KL100'
p1032
aF0.7471770056099789
aF0.7309296395400523
aF0.6008298063596249
aF0.6831065858093627
aF0.5485358801555618
aa(lp1033
S'477880128'
p1034
aS'Htr3a-Cre_NO152'
p1035
aF0.32281731669079705
aFnan
aF0.6232489891529209
aFnan
aFnan
aa(lp1036
S'327644217'
p1037
aS'Htr3a-Cre_NO152'
p1038
aF0.5425933813895473
aFnan
aF0.8203906208046848
aFnan
aFnan
aa(lp1039
S'502647640'
p1040
aS'Rorb-IRES2-Cre-D'
p1041
aF0.8229680838186763
aFnan
aF0.819056719165619
aFnan
aFnan
aa(lp1042
S'490612844'
p1043
aS'Rbp4-Cre_KL100'
p1044
aF0.4075276577777869
aF0.1455862188935193
aF0.6750861110144761
aF0.6965255916157025
aF0.5464274374204624
aa(lp1045
S'476269122'
p1046
aS'Scnn1a-Tg3-Cre'
p1047
aF0.43120439911034936
aF0.04603296221071651
aF0.6019839959525323
aF0.6453031277555626
aF0.4340559308750444
aa(lp1048
S'471129934'
p1049
aS'Rbp4-Cre_KL100'
p1050
aF0.38737912080436515
aF0.2235049331993179
aF0.8257456606946297
aF0.8199587145787953
aF0.38437848503823846
aa(lp1051
S'313862274'
p1052
aS'Sst-IRES-Cre'
p1053
aF0.5498346884170153
aF0.7491740859431364
aF0.25313865469651614
aF0.5921854643007571
aF0.4937136355480587
aa(lp1054
S'354190013'
p1055
aS'Scnn1a-Tg2-Cre'
p1056
aF0.5710434416173941
aFnan
aF0.5733439852996446
aFnan
aFnan
aa(lp1057
S'515524026'
p1058
aS'Rbp4-Cre_KL100'
p1059
aF0.37474689810712447
aFnan
aF0.26187926061509226
aFnan
aFnan
aa(lp1060
S'480122859'
p1061
aS'Rorb-IRES2-Cre-D'
p1062
aF0.4273899557544824
aFnan
aF0.36907846519395066
aFnan
aFnan
aa(lp1063
S'502245101'
p1064
aS'Nr5a1-Cre'
p1065
aF0.41726626536559214
aF0.13661282712324835
aF0.6237893683497616
aF0.6717477142119029
aF0.5580789425815098
aa(lp1066
S'501895840'
p1067
aS'Rorb-IRES2-Cre-D'
p1068
aF0.10002998443658036
aF0.10002998443658036
aF0.40740811391871457
aF0.4264293645502103
aF0.3770058115708815
aa(lp1069
S'569664731'
p1070
aS'Chrna2-Cre_OE25'
p1071
aF0.45463557394345977
aFnan
aF0.44202386211785616
aFnan
aFnan
aa(lp1072
S'485574721'
p1073
aS'Rbp4-Cre_KL100'
p1074
aF0.6716847937088951
aF0.5776256938134816
aF0.4236807110163054
aF0.5600297856636219
aF0.4688043128886646
aa(lp1075
S'580537822'
p1076
aS'Nkx2-1-CreERT2'
p1077
aF0.764962982491083
aF0.6038439774484587
aF0.8025547913112321
aF0.8132372396645491
aF0.7590690254603527
aa(lp1078
S'395785266'
p1079
aS'Scnn1a-Tg3-Cre'
p1080
aF0.3740733987043612
aFnan
aF0.6420086008278324
aFnan
aFnan
aa(lp1081
S'500964382'
p1082
aS'Scnn1a-Tg3-Cre'
p1083
aF0.30340668401536147
aFnan
aF0.3191462058703321
aFnan
aFnan
aa(lp1084
S'508883033'
p1085
aS'Rbp4-Cre_KL100'
p1086
aF0.591072113650342
aFnan
aF0.6740425581220417
aFnan
aFnan
aa(lp1087
S'524689239'
p1088
aS'Vip-IRES-Cre'
p1089
aF0.5347939151598116
aFnan
aF0.8192535286468225
aFnan
aFnan
aa(lp1090
S'518750800'
p1091
aS'Chat-IRES-Cre-neo'
p1092
aF0.7886421504497722
aF0.3794724774870287
aF0.9353003886304272
aF0.9528643076989954
aF0.9243967001332392
aa(lp1093
S'485938494'
p1094
aS'Ntsr1-Cre_GN220'
p1095
aF0.5076299084493595
aF0.2433883607954331
aF0.8256294061931232
aF0.8237038703686194
aF0.8003885970198591
aa(lp1096
S'534524026'
p1097
aS'Ctgf-2A-dgCre'
p1098
aF0.3137499928720727
aFnan
aF0.2671634089014548
aFnan
aFnan
aa(lp1099
S'320836481'
p1100
aS'Scnn1a-Tg3-Cre'
p1101
aF0.4728807102034538
aF0.43814360301273697
aF0.3915653413424903
aF0.5723264028016032
aF0.6306088233484994
aa(lp1102
S'504120613'
p1103
aS'Htr3a-Cre_NO152'
p1104
aF0.6536952069404174
aFnan
aF0.9042856782686663
aFnan
aFnan
aa(lp1105
S'567266985'
p1106
aS'Chrna2-Cre_OE25'
p1107
aF0.7186752421127477
aF0.7063821879271908
aF0.6639351288546541
aF0.7213716139352406
aF0.5882210693477394
aa(lp1108
S'486196663'
p1109
aS'Cux2-CreERT2'
p1110
aF0.5117599123173849
aFnan
aF0.6949534639753865
aFnan
aFnan
aa(lp1111
S'566559909'
p1112
aS'Nkx2-1-CreERT2'
p1113
aF0.7419820848345346
aFnan
aF0.7968013447888743
aFnan
aFnan
aa(lp1114
S'530349764'
p1115
aS'Ctgf-2A-dgCre'
p1116
aF0.6345493843311967
aFnan
aF0.6981982924964911
aFnan
aFnan
aa(lp1117
S'490267468'
p1118
aS'Cux2-CreERT2'
p1119
aF0.45082093835126713
aF0.098119582329003
aF0.6982884009887055
aF0.7216132856710311
aF0.6018660231174573
aa(lp1120
S'486472847'
p1121
aS'Rorb-IRES2-Cre-D'
p1122
aF0.6308063850639178
aF0.45315089816651266
aF0.6160088625572228
aF0.688628835754849
aF0.6128598128429937
aa(lp1123
S'490772223'
p1124
aS'Rbp4-Cre_KL100'
p1125
aF0.5906633714917338
aFnan
aF0.7368585858545791
aFnan
aFnan
aa(lp1126
S'395830185'
p1127
aS'Scnn1a-Tg3-Cre'
p1128
aF0.5670552172197075
aFnan
aF0.5183839474008634
aFnan
aFnan
aa(lp1129
S'488677994'
p1130
aS'Sst-IRES-Cre'
p1131
aF0.9076449059514985
aF0.9070357876403432
aF0.9637516113556341
aF0.9610864020300819
aF0.8947121687691786
aa(lp1132
S'484744672'
p1133
aS'Pvalb-IRES-Cre'
p1134
aF0.7120460827816506
aFnan
aF0.7770274534728362
aFnan
aFnan
aa(lp1135
S'501282204'
p1136
aS'Sst-IRES-Cre'
p1137
aF0.8208713351605147
aFnan
aF0.8062341178469072
aFnan
aFnan
aa(lp1138
S'482521571'
p1139
aS'Htr3a-Cre_NO152'
p1140
aF0.5228745012998259
aFnan
aF0.8026346224366325
aFnan
aFnan
aa(lp1141
S'329550277'
p1142
aS'Rorb-IRES2-Cre-D'
p1143
aF0.3747833866971963
aFnan
aF0.5719165664891939
aFnan
aFnan
aa(lp1144
S'479721491'
p1145
aS'Rbp4-Cre_KL100'
p1146
aF0.30876519499558713
aF0.021797014681978814
aF0.5107278730632014
aF0.523381287386616
aF0.7333353129040946
aa(lp1147
S'491038812'
p1148
aS'Pvalb-IRES-Cre'
p1149
aF0.9866528691060025
aF0.9768376941961966
aF0.9886476528917009
aF0.9450267462386495
aF0.9969983061528688
aa(lp1150
S'556356342'
p1151
aS'Chrna2-Cre_OE25'
p1152
aF0.45794225431176744
aFnan
aF0.34566269404943595
aFnan
aFnan
aa(lp1153
S'579611597'
p1154
aS'Ndnf-IRES2-dgCre'
p1155
aF0.8102211127099925
aF0.65572551295808
aF0.8771441850160131
aF0.8872266298065548
aF0.8038202433656041
aa(lp1156
S'535728342'
p1157
aS'Vip-IRES-Cre'
p1158
aF0.266740943917327
aFnan
aF0.6405482617702591
aFnan
aFnan
aa(lp1159
S'500964358'
p1160
aS'Scnn1a-Tg3-Cre'
p1161
aF0.5221961278595907
aFnan
aF0.5542729493041894
aFnan
aFnan
aa(lp1162
S'476823462'
p1163
aS'Rorb-IRES2-Cre-D'
p1164
aF0.23883701785258976
aFnan
aF0.46168057631685483
aFnan
aFnan
aa(lp1165
S'487638658'
p1166
aS'Pvalb-IRES-Cre'
p1167
aF0.340095435055524
aFnan
aF0.39207933228115105
aFnan
aFnan
aa(lp1168
S'519751607'
p1169
aS'Htr3a-Cre_NO152'
p1170
aF0.39266826597722165
aFnan
aF0.7016511092824073
aFnan
aFnan
aa(lp1171
S'473020156'
p1172
aS'Rorb-IRES2-Cre-D'
p1173
aF0.6326367445982836
aF0.49225413849154737
aF0.7077791183926773
aF0.7256676077006955
aF0.5278083812837389
aa(lp1174
S'566991946'
p1175
aS'Chrna2-Cre_OE25'
p1176
aF0.4899085285604464
aFnan
aF0.476969369055007
aFnan
aFnan
aa(lp1177
S'314822529'
p1178
aS'Rorb-IRES2-Cre-D'
p1179
aF0.5333019912891627
aF0.22194485457816882
aF0.6603574324008656
aF0.7627201861522833
aF0.6209203446467687
aa(lp1180
S'513531471'
p1181
aS'Cux2-CreERT2'
p1182
aF0.3740883224493879
aF0.128327203630708
aF0.4884712758884195
aF0.5571728915778692
aF0.6482766884695935
aa(lp1183
S'483057325'
p1184
aS'Cux2-CreERT2'
p1185
aF0.35442678995294424
aFnan
aF0.7299460256014734
aFnan
aFnan
aa(lp1186
S'484509440'
p1187
aS'Cux2-CreERT2'
p1188
aF0.6084741068977636
aFnan
aF0.6292361246773528
aFnan
aFnan
aa(lp1189
S'473909767'
p1190
aS'Htr3a-Cre_NO152'
p1191
aF0.6294939535693339
aF0.5342749891621201
aF0.8143979236902028
aF0.7602162301077722
aF0.4310646543927168
aa(lp1192
S'562385794'
p1193
aS'Chrna2-Cre_OE25'
p1194
aF0.34007762750528175
aFnan
aF0.5879141267513465
aFnan
aFnan
aa(lp1195
S'485884503'
p1196
aS'Rorb-IRES2-Cre-D'
p1197
aF0.4437880249219958
aF0.10359481640580233
aF0.6605661078114936
aF0.7159314831107608
aF0.5838988609401098
aa(lp1198
S'487594856'
p1199
aS'Pvalb-IRES-Cre'
p1200
aF0.9509071855244493
aFnan
aF0.9349050664654421
aFnan
aFnan
aa(lp1201
S'469803003'
p1202
aS'Scnn1a-Tg3-Cre'
p1203
aF0.6612899028910845
aFnan
aF0.5381349932331214
aFnan
aFnan
aa(lp1204
S'465924786'
p1205
aS'Nr5a1-Cre'
p1206
aF0.5545763706215121
aF0.2041839521249092
aF0.7579297681366077
aF0.7570788094592269
aF0.6531405931039751
aa(lp1207
S'327679841'
p1208
aS'Htr3a-Cre_NO152'
p1209
aF0.5180265112814103
aF0.2520921319239267
aF0.915577922101137
aF0.9180018500511099
aF0.9095569892004528
aa(lp1210
S'476093220'
p1211
aS'Sst-IRES-Cre'
p1212
aF0.35716787369560826
aFnan
aF0.5877225979128478
aFnan
aFnan
aa(lp1213
S'484679812'
p1214
aS'Rorb-IRES2-Cre-D'
p1215
aF0.656238686432947
aF0.38867616697745805
aF0.7532097165792085
aF0.810109075326609
aF0.653872956670428
aa(lp1216
S'422738880'
p1217
aS'Nr5a1-Cre'
p1218
aF0.43502007061471676
aF0.068286926140467
aF0.6320877126305574
aF0.7018622024002595
aF0.3296217598624456
aa(lp1219
S'341016267'
p1220
aS'Pvalb-IRES-Cre'
p1221
aF0.9793057792165244
aFnan
aF0.9603115780707843
aFnan
aFnan
aa(lp1222
S'519749342'
p1223
aS'Htr3a-Cre_NO152'
p1224
aF0.5586799914674503
aFnan
aF0.48756996752727666
aFnan
aFnan
aa(lp1225
S'487158599'
p1226
aS'Htr3a-Cre_NO152'
p1227
aF0.6749102014164031
aF0.6352889105576346
aF0.8576816390802474
aF0.8273604426519716
aF0.4727295856231822
aa(lp1228
S'510702728'
p1229
aS'Rorb-IRES2-Cre-D'
p1230
aF0.7084403186177688
aFnan
aF0.5266020405302778
aFnan
aFnan
aa(lp1231
S'563620254'
p1232
aS'Nkx2-1-CreERT2'
p1233
aF0.9748068926718447
aFnan
aF0.9113085394575958
aFnan
aFnan
aa(lp1234
S'573105010'
p1235
aS'Chrna2-Cre_OE25'
p1236
aF0.19745180803744578
aFnan
aF0.44384555368827616
aFnan
aFnan
aa(lp1237
S'324266189'
p1238
aS'Sst-IRES-Cre'
p1239
aF0.7195880809506817
aFnan
aF0.7486028999551244
aFnan
aFnan
aa(lp1240
S'513510227'
p1241
aS'Cux2-CreERT2'
p1242
aF0.5955480466037566
aFnan
aF0.7564886418356631
aFnan
aFnan
aa(lp1243
S'467703703'
p1244
aS'Scnn1a-Tg2-Cre'
p1245
aF0.3550028207523779
aFnan
aF0.6318897951752435
aFnan
aFnan
aa(lp1246
S'569670455'
p1247
aS'Chrna2-Cre_OE25'
p1248
aF0.43081349766847815
aFnan
aF0.42468788004615865
aFnan
aFnan
aa(lp1249
S'487446992'
p1250
aS'Cux2-CreERT2'
p1251
aF0.3723380639741253
aFnan
aF0.6178742402103062
aFnan
aFnan
aa(lp1252
S'490173806'
p1253
aS'Sst-IRES-Cre'
p1254
aF0.7404614314065604
aFnan
aF0.8404807046327771
aFnan
aFnan
aa(lp1255
S'487601493'
p1256
aS'Cux2-CreERT2'
p1257
aF0.5624428045573335
aFnan
aF0.683070324720707
aFnan
aFnan
aa(lp1258
S'469753383'
p1259
aS'Htr3a-Cre_NO152'
p1260
aF0.3414094717283558
aF0.19601311964903367
aF0.7689465396701566
aF0.7845811430747072
aF0.8218388661519888
aa(lp1261
S'509620929'
p1262
aS'Vip-IRES-Cre'
p1263
aF0.199537117350297
aFnan
aF0.41006382875427505
aFnan
aFnan
aa(lp1264
S'489751692'
p1265
aS'Cux2-CreERT2'
p1266
aF0.5691463785225809
aFnan
aF0.828610057653434
aFnan
aFnan
aa(lp1267
S'489888898'
p1268
aS'Nr5a1-Cre'
p1269
aF0.42690895174510485
aFnan
aF0.7939596120544626
aFnan
aFnan
aa(lp1270
S'382982932'
p1271
aS'Nr5a1-Cre'
p1272
aF0.5749742631464397
aFnan
aF0.7763968980318097
aFnan
aFnan
aa(lp1273
S'328535908'
p1274
aS'Sst-IRES-Cre'
p1275
aF0.34588169865806484
aF0.5276763207732447
aF0.3591056820567429
aF0.43990120612912476
aF0.5283701088760933
aa(lp1276
S'480648382'
p1277
aS'Rorb-IRES2-Cre-D'
p1278
aF0.363561579293764
aFnan
aF0.7059420946328907
aFnan
aFnan
aa(lp1279
S'478058328'
p1280
aS'Pvalb-IRES-Cre'
p1281
aF0.9010617398562889
aF0.9013163765027179
aF0.9219921746176044
aF0.940886380553607
aF0.9379243826140372
aa(lp1282
S'464079491'
p1283
aS'Scnn1a-Tg2-Cre'
p1284
aF0.6330553929929196
aF0.2648279066919984
aF0.41784435624835586
aF0.5064301691765662
aF0.4881328149020741
aa(lp1285
S'479415457'
p1286
aS'Scnn1a-Tg3-Cre'
p1287
aF0.5839493329725589
aF0.41001326395695137
aF0.4194875836771344
aF0.5750958261525615
aF0.6386499331005215
aa(lp1288
S'570280138'
p1289
aS'Chat-IRES-Cre-neo'
p1290
aF0.48752424395690075
aFnan
aF0.8366270171356553
aFnan
aFnan
aa(lp1291
S'478499902'
p1292
aS'Rorb-IRES2-Cre-D'
p1293
aF0.12817956556507273
aFnan
aF0.34975680109839347
aFnan
aFnan
aa(lp1294
S'566517779'
p1295
aS'Chrna2-Cre_OE25'
p1296
aF0.5044244635980708
aFnan
aF0.6884528791222622
aFnan
aFnan
aa(lp1297
S'464188580'
p1298
aS'Htr3a-Cre_NO152'
p1299
aF0.6288630057545624
aF0.3142458228357529
aF0.8695258590065409
aF0.8752356428947763
aF0.7094196052859427
aa(lp1300
S'487405644'
p1301
aS'Pvalb-IRES-Cre'
p1302
aF0.8492890344588633
aFnan
aF0.9878728726084173
aFnan
aFnan
aa(lp1303
S'486557574'
p1304
aS'Htr3a-Cre_NO152'
p1305
aF0.7584394695201102
aFnan
aF0.745175692704674
aFnan
aFnan
aa(lp1306
S'488419491'
p1307
aS'Rbp4-Cre_KL100'
p1308
aF0.6574019268553297
aF0.4791431311229152
aF0.7414542095297393
aF0.7774121157586311
aF0.5348024725910516
aa(lp1309
S'555263276'
p1310
aS'Chrna2-Cre_OE25'
p1311
aF0.44827459769918526
aFnan
aF0.485890506267869
aFnan
aFnan
aa(lp1312
S'532571720'
p1313
aS'Ctgf-2A-dgCre'
p1314
aF0.6922082826760391
aFnan
aF0.6858008409115471
aFnan
aFnan
aa(lp1315
S'475895240'
p1316
aS'Pvalb-IRES-Cre'
p1317
aF0.9496074036454171
aF0.8774714288207136
aF0.9686010088407991
aF0.9333981440358384
aF0.9142720056213871
aa(lp1318
S'518290966'
p1319
aS'Scnn1a-Tg2-Cre'
p1320
aF0.5652677212836136
aFnan
aF0.5227907474144328
aFnan
aFnan
aa(lp1321
S'490612150'
p1322
aS'Rorb-IRES2-Cre-D'
p1323
aF0.33366507710363963
aFnan
aF0.8208424453988331
aFnan
aFnan
aa(lp1324
S'555251867'
p1325
aS'Chrna2-Cre_OE25'
p1326
aF0.7825964251607951
aFnan
aF0.7623536621600852
aFnan
aFnan
aa(lp1327
S'519517188'
p1328
aS'Htr3a-Cre_NO152'
p1329
aF0.6432003647506763
aF0.3810911498795296
aF0.8716177875134464
aF0.8491512685344275
aF0.6574704892870393
aa(lp1330
S'497583188'
p1331
aS'Rorb-IRES2-Cre-D'
p1332
aF0.38382146678982654
aFnan
aF0.38369826509425764
aFnan
aFnan
aa(lp1333
S'524876305'
p1334
aS'Vip-IRES-Cre'
p1335
aF0.6077284902519451
aF0.7177607866600333
aF0.8372008336911345
aF0.8280712419389744
aF0.5214923997137177
aa(lp1336
S'485061364'
p1337
aS'Sst-IRES-Cre'
p1338
aF0.7986493358759662
aFnan
aF0.9624699136675746
aFnan
aFnan
aa(lp1339
S'489259263'
p1340
aS'Cux2-CreERT2'
p1341
aF0.6889573963632278
aFnan
aF0.689364542088166
aFnan
aFnan
aa(lp1342
S'502143149'
p1343
aS'Rorb-IRES2-Cre-D'
p1344
aF0.5243796074545649
aFnan
aF0.6021678267723691
aFnan
aFnan
aa(lp1345
S'488380827'
p1346
aS'Rbp4-Cre_KL100'
p1347
aF0.4409676442928265
aF0.15171974627817195
aF0.7857023535208352
aF0.782455810605027
aF0.7231528452714718
aa(lp1348
S'509617624'
p1349
aS'Pvalb-IRES-Cre'
p1350
aF0.9352734430244403
aFnan
aF0.9281741259493563
aFnan
aFnan
aa(lp1351
S'490558274'
p1352
aS'Rbp4-Cre_KL100'
p1353
aF0.5705922988806849
aFnan
aF0.7556359675646765
aFnan
aFnan
aa(lp1354
S'333785935'
p1355
aS'Pvalb-IRES-Cre'
p1356
aF0.44457361448072824
aFnan
aF0.4802495474615785
aFnan
aFnan
aa(lp1357
S'487353993'
p1358
aS'Cux2-CreERT2'
p1359
aF0.66300757930029
aFnan
aF0.7494496153357626
aFnan
aFnan
aa(lp1360
S'485574832'
p1361
aS'Rbp4-Cre_KL100'
p1362
aF0.8441329793862763
aF0.5596398851357245
aF0.7516635174527558
aF0.8012821525357086
aF0.6375815579423839
aa(lp1363
S'314617802'
p1364
aS'Rorb-IRES2-Cre-D'
p1365
aF0.3867207279139515
aFnan
aF0.23210360168330427
aFnan
aFnan
aa(lp1366
S'477991293'
p1367
aS'Htr3a-Cre_NO152'
p1368
aF0.5337524200602392
aFnan
aF0.9403217472712875
aFnan
aFnan
aa(lp1369
S'487668030'
p1370
aS'Pvalb-IRES-Cre'
p1371
aF0.6907317182423235
aFnan
aF0.8095507415677984
aFnan
aFnan
aa(lp1372
S'328031983'
p1373
aS'Sst-IRES-Cre'
p1374
aF0.8652413957855877
aF0.8617437707897877
aF0.8404411966460468
aF0.8333786490272038
aF0.8861738124988896
aa(lp1375
S'517645929'
p1376
aS'Scnn1a-Tg2-Cre'
p1377
aF0.44047900701751647
aFnan
aF0.3659621609364963
aFnan
aFnan
aa(lp1378
S'561934585'
p1379
aS'Vip-IRES-Cre'
p1380
aF0.5079611091828921
aF0.35092592274788303
aF0.7467110379203341
aF0.7560656230534646
aF0.6446106574665597
aa(lp1381
S'488686369'
p1382
aS'Htr3a-Cre_NO152'
p1383
aF0.5073180838347882
aF0.4309047178274726
aF0.8609498209163472
aF0.8832608331218393
aF0.8110213792996643
aa(lp1384
S'480169178'
p1385
aS'Rorb-IRES2-Cre-D'
p1386
aF0.3309677618764344
aF0.0681940616323238
aF0.5427332825870148
aF0.5367798937036796
aF0.0
aa(lp1387
S'469614747'
p1388
aS'Pvalb-IRES-Cre'
p1389
aF0.8933138356880507
aFnan
aF0.9769930829922457
aFnan
aFnan
aa(lp1390
S'471141261'
p1391
aS'Rbp4-Cre_KL100'
p1392
aF0.7861257473435072
aF0.3963242247077926
aF0.7445705416555518
aF0.7622502411561939
aF0.8005668564610876
aa(lp1393
S'322197160'
p1394
aS'Sst-IRES-Cre'
p1395
aF0.2628348354320548
aF0.2298685871342652
aF0.63608044995738
aF0.5660121458796579
aF0.586654020627383
aa(lp1396
S'518623704'
p1397
aS'Chat-IRES-Cre-neo'
p1398
aF0.7038460825288406
aFnan
aF0.8661003873214543
aFnan
aFnan
aa(lp1399
S'490170480'
p1400
aS'Cux2-CreERT2'
p1401
aF0.7316469560122965
aFnan
aF0.7593064164530685
aFnan
aFnan
aa(lp1402
S'480735016'
p1403
aS'Pvalb-IRES-Cre'
p1404
aF0.28180113887301
aFnan
aF0.27372413915633204
aFnan
aFnan
aa(lp1405
S'503254105'
p1406
aS'Pvalb-IRES-Cre'
p1407
aF0.7782925743716188
aFnan
aF0.8730591663861796
aFnan
aFnan
aa(lp1408
S'320668841'
p1409
aS'Scnn1a-Tg2-Cre'
p1410
aF0.57090642377207
aF0.6010044570057702
aF0.40782722438474944
aF0.46637789232636695
aF0.28248073539290325
aa(lp1411
S'473642382'
p1412
aS'Rorb-IRES2-Cre-D'
p1413
aF0.26483325370982436
aF0.08804415634522267
aF0.5935259668179093
aF0.6421469770459928
aF0.634181495552795
aa(lp1414
S'482809953'
p1415
aS'Nr5a1-Cre'
p1416
aF0.6023462144141877
aF0.46454061624825504
aF0.5562914996564529
aF0.5959691513573732
aF0.5075359804153924
aa(lp1417
S'491029832'
p1418
aS'Sst-IRES-Cre'
p1419
aF0.8548687476779543
aFnan
aF0.9011499381743254
aFnan
aFnan
aa(lp1420
S'522257166'
p1421
aS'Htr3a-Cre_NO152'
p1422
aF0.6374673328499848
aFnan
aF0.6047492757451163
aFnan
aFnan
aa(lp1423
S'570438732'
p1424
aS'Chat-IRES-Cre-neo'
p1425
aF0.5641818741044884
aFnan
aF0.7863610351843029
aFnan
aFnan
aa(lp1426
S'485184849'
p1427
aS'Pvalb-IRES-Cre'
p1428
aF0.9846516532724316
aFnan
aF0.9785166546727283
aFnan
aFnan
aa(lp1429
S'490779678'
p1430
aS'Rbp4-Cre_KL100'
p1431
aF0.4798324423721973
aFnan
aF0.7559356746700165
aFnan
aFnan
aa(lp1432
S'482516216'
p1433
aS'Htr3a-Cre_NO152'
p1434
aF0.4865853132512613
aF0.5169403243649213
aF0.8200653371093084
aF0.8153725885727878
aF0.7169021806447051
aa(lp1435
S'469704261'
p1436
aS'Nr5a1-Cre'
p1437
aF0.4176412683214073
aF0.05462528100945962
aF0.822053838964734
aF0.8193334142999457
aF0.8665672689107509
aa(lp1438
S'523205934'
p1439
aS'Vip-IRES-Cre'
p1440
aF0.3178018754842521
aF0.2823871774045739
aF0.7604855575524152
aF0.79496213944054
aF0.6608279755954891
aa(lp1441
S'488432250'
p1442
aS'Ntsr1-Cre_GN220'
p1443
aF0.7880499478712466
aF0.7184312760827547
aF0.634678385477254
aF0.7524424619951449
aF0.736972404154096
aa(lp1444
S'488440436'
p1445
aS'Pvalb-IRES-Cre'
p1446
aF0.9313567981652523
aFnan
aF0.9733794234299993
aFnan
aFnan
aa(lp1447
S'578774163'
p1448
aS'Chat-IRES-Cre-neo'
p1449
aF0.5255764943783295
aFnan
aF0.7399929875466014
aFnan
aFnan
aa(lp1450
S'500857324'
p1451
aS'Rorb-IRES2-Cre-D'
p1452
aF0.6658761637531996
aF0.5306153460387443
aF0.3753515137094973
aF0.5195175397673685
aF0.4445337729394859
aa(lp1453
S'476615310'
p1454
aS'Rorb-IRES2-Cre-D'
p1455
aF0.4527306914379136
aFnan
aF0.6471842218394257
aFnan
aFnan
aa(lp1456
S'469864405'
p1457
aS'Scnn1a-Tg3-Cre'
p1458
aF0.6705081328201206
aFnan
aF0.6266424873692878
aFnan
aFnan
aa(lp1459
S'479722622'
p1460
aS'Rbp4-Cre_KL100'
p1461
aF0.581091395216313
aF0.6268321347852746
aF0.40152766110617866
aF0.48873436406041065
aF0.3426039080078175
aa(lp1462
S'480952106'
p1463
aS'Pvalb-IRES-Cre'
p1464
aF0.8660239862377602
aFnan
aF0.9856223375716607
aFnan
aFnan
aa(lp1465
S'521958756'
p1466
aS'Cux2-CreERT2'
p1467
aF0.7838588429688704
aF0.5442016458690312
aF0.6747637888967551
aF0.6751981437628356
aF0.4531126420690632
aa(lp1468
S'478396248'
p1469
aS'Sst-IRES-Cre'
p1470
aF0.6103851512734862
aFnan
aF0.5286104389980696
aFnan
aFnan
aa(lp1471
S'482726727'
p1472
aS'Nr5a1-Cre'
p1473
aF0.5627422728339913
aFnan
aF0.5512236446421606
aFnan
aFnan
aa(lp1474
S'476218657'
p1475
aS'Scnn1a-Tg3-Cre'
p1476
aF0.32458718527570113
aFnan
aF0.6701912865602135
aFnan
aFnan
aa(lp1477
S'327566447'
p1478
aS'Htr3a-Cre_NO152'
p1479
aF0.35743833015697063
aFnan
aF0.8016064530881672
aFnan
aFnan
aa(lp1480
S'501891177'
p1481
aS'Ctgf-2A-dgCre'
p1482
aF0.46790241190064763
aFnan
aF0.4276093926130357
aFnan
aFnan
aa(lp1483
S'354833767'
p1484
aS'Nr5a1-Cre'
p1485
aF0.3064760323238584
aFnan
aF0.6417048663064747
aFnan
aFnan
aa(lp1486
S'489754156'
p1487
aS'Nr5a1-Cre'
p1488
aF0.5886328713834417
aF0.32589224584922316
aF0.7293290519256305
aF0.7434944658417096
aF0.42234567419103125
aa(lp1489
S'566541912'
p1490
aS'Nkx2-1-CreERT2'
p1491
aF0.6104529882002603
aFnan
aF0.7044360032665103
aFnan
aFnan
aa(lp1492
S'473564515'
p1493
aS'Sst-IRES-Cre'
p1494
aF0.7654141871157881
aFnan
aF0.9281967167841719
aFnan
aFnan
aa(lp1495
S'469734859'
p1496
aS'Nr5a1-Cre'
p1497
aF0.4553387311155083
aFnan
aF0.6549054515989678
aFnan
aFnan
aa(lp1498
S'561325425'
p1499
aS'Nkx2-1-CreERT2'
p1500
aF0.9299265182087592
aFnan
aF0.9108897486769737
aFnan
aFnan
aa(lp1501
S'478412623'
p1502
aS'Sst-IRES-Cre'
p1503
aF0.0
aFnan
aF0.6253756737506267
aFnan
aFnan
aa(lp1504
S'322781822'
p1505
aS'Ntsr1-Cre_GN220'
p1506
aF0.6263430922738922
aFnan
aF0.6900999268913647
aFnan
aFnan
aa(lp1507
S'514544971'
p1508
aS'Nr5a1-Cre'
p1509
aF0.06529025197148615
aFnan
aF0.35195313861958855
aFnan
aFnan
aa(lp1510
S'534141324'
p1511
aS'Sst-IRES-Cre'
p1512
aF0.7988458173897145
aFnan
aF0.8791175501457812
aFnan
aFnan
aa(lp1513
S'485570335'
p1514
aS'Nr5a1-Cre'
p1515
aF0.5173348391436129
aFnan
aF0.543481912332897
aFnan
aFnan
aa(lp1516
S'502978383'
p1517
aS'Nr5a1-Cre'
p1518
aF0.48185993786317316
aFnan
aF0.6904438783470547
aFnan
aFnan
aa(lp1519
S'497611660'
p1520
aS'Rorb-IRES2-Cre-D'
p1521
aF0.5233557608001668
aFnan
aF0.8567110478903853
aFnan
aFnan
aa(lp1522
S'474637203'
p1523
aS'Htr3a-Cre_NO152'
p1524
aF0.366094129172432
aF0.29365022944326075
aF0.9248154319226938
aF0.9262395820392498
aF0.9101929195356677
aa(lp1525
S'477879512'
p1526
aS'Htr3a-Cre_NO152'
p1527
aF0.5634172636291586
aF0.5164968444520553
aF0.8717873741952813
aF0.8487433382306158
aF0.8317999152569241
aa(lp1528
S'487664070'
p1529
aS'Rbp4-Cre_KL100'
p1530
aF0.763112575688981
aFnan
aF0.6588909782443465
aFnan
aFnan
aa(lp1531
S'481003643'
p1532
aS'Htr3a-Cre_NO152'
p1533
aF0.56350690538091
aFnan
aF0.88268519581992
aFnan
aFnan
aa(lp1534
S'481136214'
p1535
aS'Htr3a-Cre_NO152'
p1536
aF0.5445254883667138
aF0.39141734352548935
aF0.9197237893219955
aF0.9351968456227826
aF0.8385590046578352
aa(lp1537
S'475542907'
p1538
aS'Sst-IRES-Cre'
p1539
aF0.7729448688599325
aF0.7740014529530874
aF0.5656221170551637
aF0.5215077904677812
aF0.6835304974203474
aa(lp1540
S'322723785'
p1541
aS'Rorb-IRES2-Cre-D'
p1542
aF0.568215254100829
aF0.23806623912348387
aF0.6406626475611086
aF0.7301236209885457
aF0.4939803667370612
aa(lp1543
S'484742372'
p1544
aS'Pvalb-IRES-Cre'
p1545
aF0.9700093029216268
aF0.8767433419758255
aF0.9857800448659514
aF0.9789510135430037
aF0.9805885402178399
aa(lp1546
S'476048909'
p1547
aS'Rorb-IRES2-Cre-D'
p1548
aF0.253481912280743
aFnan
aF0.4144881167919049
aFnan
aFnan
aa(lp1549
S'479492633'
p1550
aS'Rorb-IRES2-Cre-D'
p1551
aF0.5490059034180306
aFnan
aF0.5765692191473475
aFnan
aFnan
aa(lp1552
S'502120615'
p1553
aS'Rorb-IRES2-Cre-D'
p1554
aF0.6008511888535097
aFnan
aF0.5663371599630733
aFnan
aFnan
aa(lp1555
S'514530024'
p1556
aS'Nr5a1-Cre'
p1557
aF0.5461473413581596
aFnan
aF0.5677166186985401
aFnan
aFnan
aa(lp1558
S'486236426'
p1559
aS'Rbp4-Cre_KL100'
p1560
aF0.7084559871935968
aFnan
aF0.7560208465708813
aFnan
aFnan
aa(lp1561
S'488770805'
p1562
aS'Pvalb-IRES-Cre'
p1563
aF0.6556362525174085
aFnan
aF0.8443819334646734
aFnan
aFnan
aa(lp1564
S'323834998'
p1565
aS'Scnn1a-Tg3-Cre'
p1566
aF0.8044197139678991
aF0.7434850803679324
aF0.9209270003853557
aF0.9130372544578836
aF0.865093267558612
aa(lp1567
S'507914933'
p1568
aS'Ntsr1-Cre_GN220'
p1569
aF0.7895508759151613
aFnan
aF0.7789265241628262
aFnan
aFnan
aa(lp1570
S'508911693'
p1571
aS'Rbp4-Cre_KL100'
p1572
aF0.5497838128030426
aF0.6087176664102134
aF0.6426158600062538
aF0.7827652171779874
aF0.3142139896513848
aa(lp1573
S'507100117'
p1574
aS'Rorb-IRES2-Cre-D'
p1575
aF0.5769298240253943
aFnan
aF0.49847394424579633
aFnan
aFnan
aa(lp1576
S'486500736'
p1577
aS'Rorb-IRES2-Cre-D'
p1578
aF0.49068313534586944
aF0.2163596151661802
aF0.6398408152093891
aF0.6620081160842886
aF0.5523418969891286
aa(lp1579
S'482444444'
p1580
aS'Pvalb-IRES-Cre'
p1581
aF0.9874882853408048
aFnan
aF0.9788767734539037
aFnan
aFnan
aa(lp1582
S'501940485'
p1583
aS'Ctgf-2A-dgCre'
p1584
aF0.4498605316103316
aF0.44256869970205587
aF0.5209618698488098
aF0.26582473120169514
aF0.0
aa(lp1585
S'490982660'
p1586
aS'Rbp4-Cre_KL100'
p1587
aF0.46268624183412943
aF0.2899171793086472
aF0.7892411540798144
aF0.7885739812929962
aF0.6358362116150694
aa(lp1588
S'503814817'
p1589
aS'Ntsr1-Cre_GN220'
p1590
aF0.7028701656563696
aF0.4404204164255352
aF0.7394505897445173
aF0.7640462130359829
aF0.6224236246442275
aa(lp1591
S'479766169'
p1592
aS'Rorb-IRES2-Cre-D'
p1593
aF0.44785115947747295
aF0.19721087951460836
aF0.6039500534367092
aF0.652245031618093
aF0.6558987093636747
aa(lp1594
S'466378900'
p1595
aS'Rorb-IRES2-Cre-D'
p1596
aF0.6550410188029696
aFnan
aF0.6759889087303507
aFnan
aFnan
aa(lp1597
S'502366405'
p1598
aS'Ctgf-2A-dgCre'
p1599
aF0.6227826222333525
aFnan
aF0.61680025681729
aFnan
aFnan
aa(lp1600
S'475400072'
p1601
aS'Rbp4-Cre_KL100'
p1602
aF0.42598637679658596
aF0.1474392882158086
aF0.5955698422936729
aF0.6457270489975302
aF0.7199284552535049
aa(lp1603
S'560889670'
p1604
aS'Chat-IRES-Cre-neo'
p1605
aF0.5990912473304865
aFnan
aF0.7078497628566951
aFnan
aFnan
aa(lp1606
S'485836906'
p1607
aS'Rorb-IRES2-Cre-D'
p1608
aF0.5568951115412553
aFnan
aF0.7646816663055332
aFnan
aFnan
aa(lp1609
S'566671538'
p1610
aS'Chrna2-Cre_OE25'
p1611
aF0.5032091752249525
aF0.4905487553212955
aF0.8550677715073908
aF0.8688320719685644
aF0.6022694160120742
aa(lp1612
S'509003464'
p1613
aS'Ntsr1-Cre_GN220'
p1614
aF0.7410391737048772
aF0.5592004829654499
aF0.7545017368794398
aF0.7346833404003806
aF0.5179595025096304
aa(lp1615
S'329241587'
p1616
aS'Sst-IRES-Cre'
p1617
aF0.3422390936163249
aFnan
aF0.3518540107158409
aFnan
aFnan
aa(lp1618
S'490601284'
p1619
aS'Rbp4-Cre_KL100'
p1620
aF0.5533537798349212
aF0.4645400503886074
aF0.47924910628140627
aF0.4961594232997444
aF0.6695430365477978
aa(lp1621
S'482764620'
p1622
aS'Htr3a-Cre_NO152'
p1623
aF0.47301010534792415
aF0.4952679842787271
aF0.5781183107460464
aF0.5863534453042641
aF0.45200480986092206
aa(lp1624
S'318733871'
p1625
aS'Nr5a1-Cre'
p1626
aF0.43218545471280145
aF0.07859567625612353
aF0.6172506039348012
aF0.7024126422503584
aF0.6332349437884843
aa(lp1627
S'313861828'
p1628
aS'Scnn1a-Tg3-Cre'
p1629
aF0.5949301662758469
aFnan
aF0.5531793100772271
aFnan
aFnan
aa(lp1630
S'476557750'
p1631
aS'Scnn1a-Tg3-Cre'
p1632
aF0.49058371984059795
aF0.13792974770845184
aF0.6287299171965524
aF0.667271474476576
aF0.6774308525461914
aa(lp1633
S'321707905'
p1634
aS'Pvalb-IRES-Cre'
p1635
aF0.8880085605289818
aFnan
aF0.9465725402773092
aFnan
aFnan
aa(lp1636
S'469803127'
p1637
aS'Scnn1a-Tg3-Cre'
p1638
aF0.5407318657546273
aF0.6883723900166041
aF0.6504744560935996
aF0.7563543042404977
aF0.6131719323055521
aa(lp1639
S'555898896'
p1640
aS'Chrna2-Cre_OE25'
p1641
aF0.0
aF0.0
aF0.4986317376633414
aF0.48732981977233647
aF0.43158649240013286
aa(lp1642
S'476452460'
p1643
aS'Nr5a1-Cre'
p1644
aF0.6617376203118872
aFnan
aF0.45851587496701157
aFnan
aFnan
aa(lp1645
S'519220630'
p1646
aS'Chat-IRES-Cre-neo'
p1647
aF0.6161738106854973
aF0.6059825086851683
aF0.803847219726387
aF0.8052676643620941
aF0.7598209939071221
aa(lp1648
S'324493977'
p1649
aS'Sst-IRES-Cre'
p1650
aF0.8515387043766152
aF0.7525145684619508
aF0.800246692872533
aF0.8114004300242965
aF0.6981343000725619
aa(lp1651
S'502144146'
p1652
aS'Rorb-IRES2-Cre-D'
p1653
aF0.5758670508475515
aFnan
aF0.44611767002832614
aFnan
aFnan
aa(lp1654
S'581020172'
p1655
aS'Nkx2-1-CreERT2'
p1656
aF0.9824721974721177
aFnan
aF0.9545045736027248
aFnan
aFnan
aa(lp1657
S'566304697'
p1658
aS'Nkx2-1-CreERT2'
p1659
aF0.7361516403426002
aFnan
aF0.7691204122037145
aFnan
aFnan
aa(lp1660
S'479711015'
p1661
aS'Rbp4-Cre_KL100'
p1662
aF0.305496223065248
aFnan
aF0.6011204127823341
aFnan
aFnan
aa(lp1663
S'509881736'
p1664
aS'Ctgf-2A-dgCre'
p1665
aF0.623635274637105
aF0.49182821888289924
aF0.5686779378807115
aF0.6718516791907828
aF0.6134747914286813
aa(lp1666
S'313861794'
p1667
aS'Scnn1a-Tg3-Cre'
p1668
aF0.3548275872547659
aF0.13446220090683356
aF0.5334565883866871
aF0.6789640177665255
aF0.0
aa(lp1669
S'497560724'
p1670
aS'Sst-IRES-Cre'
p1671
aF0.7403759446364081
aFnan
aF0.8840256424656021
aFnan
aFnan
aa(lp1672
S'314642645'
p1673
aS'Rorb-IRES2-Cre-D'
p1674
aF0.6190975135833151
aF0.32790918217825965
aF0.611457874356143
aF0.6907083860923707
aF0.46759122349687027
aa(lp1675
S'531342116'
p1676
aS'Chat-IRES-Cre-neo'
p1677
aF0.32602763254330785
aFnan
aF0.42086526419434445
aFnan
aFnan
aa(lp1678
S'480643417'
p1679
aS'Rorb-IRES2-Cre-D'
p1680
aF0.5695715527509788
aF0.35225690212905963
aF0.6696785492255781
aF0.6973043975030558
aF0.43980145821004457
aa(lp1681
S'505200218'
p1682
aS'Cux2-CreERT2'
p1683
aF0.623086781934574
aFnan
aF0.5429351632391686
aFnan
aFnan
aa(lp1684
S'490172112'
p1685
aS'Cux2-CreERT2'
p1686
aF0.3117094983662383
aFnan
aF0.3867620165537958
aFnan
aFnan
aa(lp1687
S'475838754'
p1688
aS'Nr5a1-Cre'
p1689
aF0.40380027411671937
aF0.2752987641438816
aF0.7749270772678072
aF0.7739144200218946
aF0.35174622167437924
aa(lp1690
S'562535995'
p1691
aS'Vip-IRES-Cre'
p1692
aF0.6481837157475041
aF0.6903043694643423
aF0.7584309802879272
aF0.8139816513315503
aF0.48240540545480903
aa(lp1693
S'329254830'
p1694
aS'Sst-IRES-Cre'
p1695
aF0.584657156095339
aFnan
aF0.8658701039995814
aFnan
aFnan
aa(lp1696
S'481003593'
p1697
aS'Htr3a-Cre_NO152'
p1698
aF0.7323954108465468
aF0.6090567691427272
aF0.9129042329769168
aF0.9261329510109594
aF0.5810961061580441
aa(lp1699
S'553541110'
p1700
aS'Chat-IRES-Cre-neo'
p1701
aF0.45858591017458233
aFnan
aF0.8242055544265563
aFnan
aFnan
aa(lp1702
S'313862167'
p1703
aS'Sst-IRES-Cre'
p1704
aF0.8279000617997809
aF0.8292375175092737
aF0.7590386434563366
aF0.840370625443416
aF0.8798903323215109
aa(lp1705
S'466664172'
p1706
aS'Sst-IRES-Cre'
p1707
aF0.5198158187616563
aFnan
aF0.4916296660532568
aFnan
aFnan
aa(lp1708
S'506777471'
p1709
aS'Scnn1a-Tg2-Cre'
p1710
aF0.5873199757992278
aFnan
aF0.5398560521577316
aFnan
aFnan
aa(lp1711
S'482435718'
p1712
aS'Htr3a-Cre_NO152'
p1713
aF0.6414787415723445
aFnan
aF0.7573618315181558
aFnan
aFnan
aa(lp1714
S'486262299'
p1715
aS'Cux2-CreERT2'
p1716
aF0.34273601762213296
aFnan
aF0.7003207076190576
aFnan
aFnan
aa(lp1717
S'476104386'
p1718
aS'Sst-IRES-Cre'
p1719
aF0.9477462095346251
aFnan
aF0.9803221208279879
aFnan
aFnan
aa(lp1720
S'570924514'
p1721
aS'Vip-IRES-Cre'
p1722
aF0.33228496307619143
aF0.3399328515552252
aF0.5077676309671861
aF0.5087630107967605
aF0.33712157246227126
aa(lp1723
S'490916882'
p1724
aS'Rbp4-Cre_KL100'
p1725
aF0.6519542519460487
aFnan
aF0.5881386808492486
aFnan
aFnan
aa(lp1726
S'490376252'
p1727
aS'Cux2-CreERT2'
p1728
aF0.8044741700588982
aF0.6323960783728676
aF0.8748363484113548
aF0.9012717820603163
aF0.7953481583658064
aa(lp1729
S'488501071'
p1730
aS'Pvalb-IRES-Cre'
p1731
aF0.9897075444446598
aF0.8741258164727546
aF0.9863998772658034
aF0.855978918761502
aF0.9832202837193121
aa(lp1732
S'522408506'
p1733
aS'Htr3a-Cre_NO152'
p1734
aF0.3627234379658478
aFnan
aF0.6475264052383665
aFnan
aFnan
aa(lp1735
S'501848315'
p1736
aS'Rorb-IRES2-Cre-D'
p1737
aF0.607496296745173
aFnan
aF0.6061678608450436
aFnan
aFnan
aa(lp1738
S'507996688'
p1739
aS'Rbp4-Cre_KL100'
p1740
aF0.5619211855084703
aFnan
aF0.49160909240908796
aFnan
aFnan
aa(lp1741
S'488677318'
p1742
aS'Sst-IRES-Cre'
p1743
aF0.7491617090602177
aFnan
aF0.7225319895376967
aFnan
aFnan
aa(lp1744
S'485287944'
p1745
aS'Ntsr1-Cre_GN220'
p1746
aF0.5219132932266525
aFnan
aF0.7480128934835177
aFnan
aFnan
aa(lp1747
S'323838579'
p1748
aS'Scnn1a-Tg3-Cre'
p1749
aF0.47193878789129134
aF0.2349012768013829
aF0.703078425725279
aF0.7297832709477342
aF0.746659183384436
aa(lp1750
S'469832490'
p1751
aS'Scnn1a-Tg3-Cre'
p1752
aF0.3768454902395766
aF0.25273241284309494
aF0.6526375700997632
aF0.660440216116851
aF0.25883455531908917
aa(lp1753
S'481127173'
p1754
aS'Pvalb-IRES-Cre'
p1755
aF0.9311648414904357
aF0.7689824725488978
aF0.977310656768204
aF0.9653306314788784
aF0.9489309056174039
aa(lp1756
S'504615116'
p1757
aS'Rorb-IRES2-Cre-D'
p1758
aF0.5126515388506913
aF0.5922709089805213
aF0.5864151876082682
aF0.4993205891763356
aF0.33749090910102
aa(lp1759
S'566460800'
p1760
aS'Chrna2-Cre_OE25'
p1761
aF0.7851547993374928
aFnan
aF0.6609021595158798
aFnan
aFnan
aa(lp1762
S'490733962'
p1763
aS'Rbp4-Cre_KL100'
p1764
aF0.5414697843975873
aFnan
aF0.7475806848297551
aFnan
aFnan
aa(lp1765
S'507770911'
p1766
aS'Scnn1a-Tg2-Cre'
p1767
aF0.5098674881809184
aFnan
aF0.6975090652682231
aFnan
aFnan
aa(lp1768
S'469793303'
p1769
aS'Scnn1a-Tg3-Cre'
p1770
aF0.6078536964570359
aFnan
aF0.6129107827714656
aFnan
aFnan
aa(lp1771
S'475740357'
p1772
aS'Htr3a-Cre_NO152'
p1773
aF0.6750941815025909
aF0.6966914784045796
aF0.6927167971670005
aF0.6437396587374101
aF0.8140526106982853
aa(lp1774
S'473943881'
p1775
aS'Htr3a-Cre_NO152'
p1776
aF0.5506298067258913
aFnan
aF0.8980930214593167
aFnan
aFnan
aa(lp1777
S'478586295'
p1778
aS'Rorb-IRES2-Cre-D'
p1779
aF0.24758485663782723
aFnan
aF0.7678887927054304
aFnan
aFnan
aa(lp1780
S'322229594'
p1781
aS'Sst-IRES-Cre'
p1782
aF0.6880285532914334
aF0.6499843441377765
aF0.6489625869240319
aF0.7066894422503862
aF0.6114248168586928
aa(lp1783
S'515264431'
p1784
aS'Vip-IRES-Cre'
p1785
aF0.36166778499492136
aFnan
aF0.4460805975569766
aFnan
aFnan
aa(lp1786
S'522418855'
p1787
aS'Vip-IRES-Cre'
p1788
aF0.8579141282136441
aFnan
aF0.9004108707960878
aFnan
aFnan
aa(lp1789
S'508987256'
p1790
aS'Ntsr1-Cre_GN220'
p1791
aF0.4180567080867863
aFnan
aF0.7203744272421257
aFnan
aFnan
aa(lp1792
S'531121585'
p1793
aS'Vip-IRES-Cre'
p1794
aF0.7832372587683228
aFnan
aF0.7799632516725714
aFnan
aFnan
aa(lp1795
S'478958894'
p1796
aS'Pvalb-IRES-Cre'
p1797
aF0.7918756511116315
aF0.5254970709352564
aF0.9724561932839111
aF0.9545152407571874
aF0.978272326205827
aa(lp1798
S'474267418'
p1799
aS'Htr3a-Cre_NO152'
p1800
aF0.507386057663894
aFnan
aF0.6811782049784286
aFnan
aFnan
aa(lp1801
S'486466923'
p1802
aS'Rorb-IRES2-Cre-D'
p1803
aF0.419394239094263
aFnan
aF0.6079570368589383
aFnan
aFnan
aa(lp1804
S'527089085'
p1805
aS'Ndnf-IRES2-dgCre'
p1806
aF0.8951159605509956
aFnan
aF0.8831266719601831
aFnan
aFnan
aa(lp1807
S'483083617'
p1808
aS'Sst-IRES-Cre'
p1809
aF0.5063785555852048
aF0.5193801604074305
aF0.623623424264146
aF0.665720172075233
aF0.6700655496055635
aa(lp1810
S'503286448'
p1811
aS'Ntsr1-Cre_GN220'
p1812
aF0.661787592652647
aFnan
aF0.8194415421298525
aFnan
aFnan
aa(lp1813
S'370351753'
p1814
aS'Nr5a1-Cre'
p1815
aF0.3974994269889362
aFnan
aF0.5847315868167856
aFnan
aFnan
aa(lp1816
S'488688344'
p1817
aS'Ntsr1-Cre_GN220'
p1818
aF0.12065239598676267
aFnan
aF0.502213342707501
aFnan
aFnan
aa(lp1819
S'476562817'
p1820
aS'Rorb-IRES2-Cre-D'
p1821
aF0.0
aF0.0
aF0.0
aF0.0
aF0.0
aa(lp1822
S'489888847'
p1823
aS'Nr5a1-Cre'
p1824
aF0.649276146588548
aFnan
aF0.8048437096684187
aFnan
aFnan
aa(lp1825
S'471800189'
p1826
aS'Ntsr1-Cre_GN220'
p1827
aF0.3357722149669725
aFnan
aF0.7619429296468182
aFnan
aFnan
aa(lp1828
S'369697038'
p1829
aS'Nr5a1-Cre'
p1830
aF0.5437490502728399
aFnan
aF0.7349332935799049
aFnan
aFnan
aa(lp1831
S'530204927'
p1832
aS'Ctgf-2A-dgCre'
p1833
aF0.23087778747786178
aFnan
aF0.47871530328709894
aFnan
aFnan
aa(lp1834
S'486941367'
p1835
aS'Htr3a-Cre_NO152'
p1836
aF0.6847246860269547
aFnan
aF0.9318137337846591
aFnan
aFnan
aa(lp1837
S'483099796'
p1838
aS'Cux2-CreERT2'
p1839
aF0.3546211778465182
aFnan
aF0.4324774917395773
aFnan
aFnan
aa(lp1840
S'485905411'
p1841
aS'Ntsr1-Cre_GN220'
p1842
aF0.44016351412187565
aF0.19881946194810607
aF0.7411524719756403
aF0.7647383371059785
aF0.609095647647769
aa(lp1843
S'422055317'
p1844
aS'Nr5a1-Cre'
p1845
aF0.47015369703638366
aFnan
aF0.40315865962122005
aFnan
aFnan
aa(lp1846
S'476753465'
p1847
aS'Sst-IRES-Cre'
p1848
aF0.7860692135745058
aFnan
aF0.8594287747314807
aFnan
aFnan
aa(lp1849
S'485931158'
p1850
aS'Rorb-IRES2-Cre-D'
p1851
aF0.4263204145968135
aFnan
aF0.7506322609126331
aFnan
aFnan
aa(lp1852
S'487445455'
p1853
aS'Cux2-CreERT2'
p1854
aF0.5468189672516292
aF0.29154124847801227
aF0.7672277873219671
aF0.7756945811319271
aF0.5882163705337086
aa(lp1855
S'322762730'
p1856
aS'Ntsr1-Cre_GN220'
p1857
aF0.4866385568867473
aFnan
aF0.7149828457250007
aFnan
aFnan
aa(lp1858
S'581058351'
p1859
aS'Nkx2-1-CreERT2'
p1860
aF0.8646681027380828
aF0.9584295775635677
aF0.8645323864175336
aF0.9770791813402309
aF0.9194197425902324
aa(lp1861
S'490916919'
p1862
aS'Rbp4-Cre_KL100'
p1863
aF0.3660934280458728
aF0.13460083235628456
aF0.6799921323607971
aF0.7325514464218923
aF0.45222776022403577
aa(lp1864
S'482772037'
p1865
aS'Htr3a-Cre_NO152'
p1866
aF0.8458542303698686
aF0.7509480814613374
aF0.8853722693396865
aF0.8900825336886381
aF0.8598014731048692
aa(lp1867
S'527464013'
p1868
aS'Ndnf-IRES2-dgCre'
p1869
aF0.9253801743521698
aF0.6646518516096931
aF0.8455672484273656
aF0.8865825089820311
aF0.8777353920383022
aa(lp1870
S'556968207'
p1871
aS'Chat-IRES-Cre-neo'
p1872
aF0.5597036671599948
aFnan
aF0.8357280524928756
aFnan
aFnan
aa(lp1873
S'480124551'
p1874
aS'Rorb-IRES2-Cre-D'
p1875
aF0.24810935496119882
aFnan
aF0.694160484591637
aFnan
aFnan
aa(lp1876
S'522723828'
p1877
aS'Ctgf-2A-dgCre'
p1878
aF0.4364632113143814
aF0.4332721879610214
aF0.313948054917677
aF0.4067737725261109
aF0.2601245560132112
aa(lp1879
S'517752298'
p1880
aS'Nr5a1-Cre'
p1881
aF0.3939601289255907
aFnan
aF0.5191801476816
aFnan
aFnan
aa(lp1882
S'519549081'
p1883
aS'Htr3a-Cre_NO152'
p1884
aF0.7468231729426398
aF0.733569080315962
aF0.7019662364406163
aF0.695121219834615
aF0.4349725703578473
aa(lp1885
S'521625948'
p1886
aS'Cux2-CreERT2'
p1887
aF0.7050995916449634
aFnan
aF0.7284767597761016
aFnan
aFnan
aa(lp1888
S'475586130'
p1889
aS'Htr3a-Cre_NO152'
p1890
aF0.6500290671620673
aF0.6118302841912491
aF0.824079034482896
aF0.8208899494005939
aF0.7501311836716376
aa(lp1891
S'520347870'
p1892
aS'Vip-IRES-Cre'
p1893
aF0.6542848274735426
aFnan
aF0.6813889360352091
aFnan
aFnan
aa(lp1894
S'515199779'
p1895
aS'Scnn1a-Tg3-Cre'
p1896
aF0.5867982134805346
aFnan
aF0.680778747908102
aFnan
aFnan
aa(lp1897
S'563380422'
p1898
aS'Nkx2-1-CreERT2'
p1899
aF0.7148852347207917
aFnan
aF0.7704873054180598
aFnan
aFnan
aa(lp1900
S'467357834'
p1901
aS'Rorb-IRES2-Cre-D'
p1902
aF0.4666356151562084
aFnan
aF0.7194700041646542
aFnan
aFnan
aa(lp1903
S'517982558'
p1904
aS'Scnn1a-Tg2-Cre'
p1905
aF0.2848181258437167
aFnan
aF0.45103418397969103
aFnan
aFnan
aa(lp1906
S'569653118'
p1907
aS'Chrna2-Cre_OE25'
p1908
aF0.5753785421937909
aFnan
aF0.7103118505801472
aFnan
aFnan
aa(lp1909
S'478586425'
p1910
aS'Rorb-IRES2-Cre-D'
p1911
aF0.7885975393478073
aFnan
aF0.868204084543409
aFnan
aFnan
aa(lp1912
S'488426904'
p1913
aS'Ntsr1-Cre_GN220'
p1914
aF0.3502473507859912
aF0.10550195351547953
aF0.7616825322426262
aF0.7730917000916198
aF0.8975182791008021
aa(lp1915
S'515305346'
p1916
aS'Pvalb-IRES-Cre'
p1917
aF0.92692000748047
aF0.930246596394086
aF0.8988964353374798
aF0.970931448667513
aF0.9793194774772562
aa(lp1918
S'527095729'
p1919
aS'Ndnf-IRES2-dgCre'
p1920
aF0.7801139926772974
aFnan
aF0.9103539590216557
aFnan
aFnan
aa(lp1921
S'480171348'
p1922
aS'Sst-IRES-Cre'
p1923
aF0.2801935961386489
aFnan
aF0.29307441402813306
aFnan
aFnan
aa(lp1924
S'476131588'
p1925
aS'Scnn1a-Tg3-Cre'
p1926
aF0.478291433306813
aF0.45220918374573515
aF0.5070911697648472
aF0.4451104436964277
aF0.18425726805055773
aa(lp1927
S'322197295'
p1928
aS'Sst-IRES-Cre'
p1929
aF0.2841601608440342
aF0.3385065956182676
aF0.4667155656714803
aF0.41593563870436046
aF0.48999469223766395
aa(lp1930
S'487664663'
p1931
aS'Rbp4-Cre_KL100'
p1932
aF0.5598530350264698
aFnan
aF0.33877187898077143
aFnan
aFnan
aa(lp1933
S'518238899'
p1934
aS'Scnn1a-Tg2-Cre'
p1935
aF0.5378567828427299
aF0.15664395185258626
aF0.6134003977355645
aF0.6729901999618635
aF0.49018893224692295
aa(dp1936
S'Nr5a1-Cre'
p1937
(lp1938
g37
ag94
ag106
ag118
ag163
ag175
ag220
ag229
ag265
ag286
ag313
ag424
ag487
ag577
ag616
ag637
ag691
ag718
ag733
ag787
ag874
ag877
ag904
ag958
ag1063
ag1204
ag1216
ag1267
ag1270
ag1414
ag1435
ag1471
ag1483
ag1486
ag1495
ag1507
ag1513
ag1516
ag1555
ag1624
ag1642
ag1687
ag1813
ag1822
ag1828
ag1843
ag1879
asS'inhibitory'
p1939
(lp1940
g1
ag7
ag10
ag19
ag22
ag25
ag28
ag31
ag49
ag52
ag58
ag64
ag67
ag70
ag73
ag79
ag97
ag103
ag124
ag127
ag130
ag142
ag148
ag169
ag172
ag178
ag181
ag187
ag193
ag196
ag205
ag211
ag226
ag232
ag235
ag238
ag250
ag256
ag262
ag271
ag283
ag295
ag298
ag307
ag322
ag328
ag334
ag337
ag346
ag349
ag355
ag358
ag364
ag367
ag373
ag394
ag400
ag412
ag418
ag421
ag430
ag451
ag478
ag481
ag484
ag490
ag496
ag502
ag511
ag514
ag517
ag520
ag523
ag526
ag541
ag544
ag550
ag553
ag556
ag568
ag571
ag574
ag586
ag589
ag592
ag598
ag601
ag604
ag613
ag622
ag625
ag634
ag661
ag676
ag679
ag682
ag688
ag697
ag700
ag703
ag712
ag715
ag721
ag730
ag736
ag745
ag748
ag754
ag757
ag766
ag772
ag775
ag778
ag781
ag805
ag808
ag814
ag820
ag826
ag838
ag841
ag853
ag862
ag883
ag886
ag907
ag913
ag916
ag919
ag922
ag931
ag943
ag946
ag949
ag955
ag961
ag979
ag988
ag991
ag997
ag1000
ag1003
ag1009
ag1012
ag1015
ag1024
ag1027
ag1033
ag1036
ag1051
ag1069
ag1075
ag1087
ag1090
ag1102
ag1105
ag1111
ag1129
ag1132
ag1135
ag1138
ag1147
ag1150
ag1153
ag1156
ag1165
ag1168
ag1174
ag1189
ag1192
ag1198
ag1207
ag1210
ag1219
ag1222
ag1225
ag1231
ag1234
ag1237
ag1246
ag1252
ag1258
ag1261
ag1273
ag1279
ag1288
ag1294
ag1297
ag1300
ag1303
ag1309
ag1315
ag1324
ag1327
ag1333
ag1336
ag1348
ag1354
ag1366
ag1369
ag1372
ag1378
ag1381
ag1387
ag1393
ag1396
ag1402
ag1405
ag1417
ag1420
ag1423
ag1426
ag1432
ag1438
ag1444
ag1447
ag1462
ag1468
ag1477
ag1489
ag1492
ag1498
ag1501
ag1510
ag1522
ag1525
ag1531
ag1534
ag1537
ag1543
ag1561
ag1579
ag1603
ag1609
ag1615
ag1621
ag1633
ag1639
ag1645
ag1648
ag1654
ag1657
ag1669
ag1675
ag1690
ag1693
ag1696
ag1699
ag1702
ag1705
ag1711
ag1717
ag1720
ag1729
ag1732
ag1741
ag1753
ag1759
ag1771
ag1774
ag1780
ag1783
ag1786
ag1792
ag1795
ag1798
ag1804
ag1807
ag1834
ag1846
ag1858
ag1864
ag1867
ag1870
ag1882
ag1888
ag1891
ag1897
ag1906
ag1915
ag1918
ag1921
ag1927
asS'Cux2-CreERT2'
p1941
(lp1942
g55
ag133
ag145
ag154
ag157
ag190
ag208
ag259
ag274
ag289
ag304
ag370
ag397
ag436
ag445
ag457
ag466
ag475
ag562
ag643
ag649
ag664
ag670
ag709
ag739
ag769
ag796
ag829
ag844
ag856
ag868
ag895
ag937
ag967
ag1018
ag1021
ag1108
ag1117
ag1180
ag1183
ag1186
ag1240
ag1249
ag1255
ag1264
ag1339
ag1357
ag1399
ag1465
ag1681
ag1684
ag1714
ag1726
ag1837
ag1852
ag1885
asS'Ctgf-2A-dgCre'
p1943
(lp1944
g85
ag136
ag244
ag310
ag385
ag391
ag463
ag655
ag802
ag823
ag910
ag1096
ag1114
ag1312
ag1480
ag1582
ag1597
ag1663
ag1831
ag1876
asS'Vip-IRES-Cre'
p1945
(lp1946
g211
ag349
ag364
ag634
ag745
ag775
ag781
ag1087
ag1156
ag1261
ag1333
ag1378
ag1438
ag1690
ag1720
ag1783
ag1786
ag1792
ag1891
asS'Scnn1a-Tg2-Cre'
p1947
(lp1948
g4
ag115
ag319
ag340
ag409
ag415
ag469
ag535
ag835
ag847
ag865
ag871
ag1054
ag1243
ag1282
ag1318
ag1375
ag1408
ag1708
ag1765
ag1903
ag1933
asS'Ntsr1-Cre_GN220'
p1949
(lp1950
g43
ag82
ag88
ag121
ag241
ag268
ag352
ag472
ag529
ag559
ag583
ag646
ag685
ag694
ag706
ag724
ag751
ag799
ag859
ag901
ag928
ag964
ag970
ag973
ag985
ag1093
ag1441
ag1504
ag1567
ag1588
ag1612
ag1744
ag1789
ag1810
ag1816
ag1825
ag1840
ag1855
ag1912
asS'Sst-IRES-Cre'
p1951
(lp1952
g19
ag22
ag31
ag124
ag196
ag232
ag238
ag307
ag334
ag355
ag358
ag400
ag430
ag478
ag490
ag496
ag511
ag517
ag526
ag568
ag589
ag661
ag721
ag748
ag757
ag772
ag805
ag841
ag853
ag862
ag913
ag946
ag961
ag1000
ag1015
ag1051
ag1129
ag1135
ag1210
ag1237
ag1252
ag1273
ag1336
ag1372
ag1393
ag1417
ag1468
ag1492
ag1501
ag1510
ag1537
ag1615
ag1648
ag1669
ag1693
ag1702
ag1705
ag1717
ag1741
ag1780
ag1807
ag1846
ag1921
ag1927
asS'Rbp4-Cre_KL100'
p1953
(lp1954
g34
ag46
ag109
ag112
ag199
ag214
ag247
ag277
ag376
ag379
ag382
ag565
ag580
ag628
ag631
ag658
ag667
ag763
ag790
ag832
ag850
ag889
ag892
ag898
ag952
ag982
ag1030
ag1042
ag1048
ag1057
ag1072
ag1084
ag1123
ag1144
ag1306
ag1345
ag1351
ag1360
ag1390
ag1429
ag1459
ag1528
ag1558
ag1570
ag1585
ag1600
ag1618
ag1660
ag1723
ag1738
ag1762
ag1861
ag1930
asS'Scnn1a-Tg3-Cre'
p1955
(lp1956
g13
ag16
ag61
ag76
ag160
ag217
ag325
ag388
ag406
ag442
ag454
ag493
ag505
ag640
ag673
ag811
ag817
ag1045
ag1078
ag1081
ag1099
ag1126
ag1159
ag1201
ag1285
ag1456
ag1474
ag1564
ag1627
ag1630
ag1636
ag1666
ag1747
ag1750
ag1768
ag1894
ag1924
asS'Chrna2-Cre_OE25'
p1957
(lp1958
g10
ag28
ag67
ag70
ag256
ag271
ag298
ag394
ag523
ag736
ag820
ag907
ag922
ag955
ag1024
ag1069
ag1105
ag1150
ag1174
ag1192
ag1234
ag1246
ag1294
ag1309
ag1324
ag1609
ag1639
ag1759
ag1906
asS'excitatory'
p1959
(lp1960
g4
ag13
ag16
ag34
ag37
ag40
ag43
ag46
ag55
ag61
ag76
ag82
ag85
ag88
ag91
ag94
ag100
ag106
ag109
ag112
ag115
ag118
ag121
ag133
ag136
ag139
ag145
ag151
ag154
ag157
ag160
ag163
ag166
ag175
ag184
ag190
ag199
ag202
ag208
ag214
ag217
ag220
ag223
ag229
ag241
ag244
ag247
ag253
ag259
ag265
ag268
ag274
ag277
ag280
ag286
ag289
ag292
ag301
ag304
ag310
ag313
ag316
ag319
ag325
ag331
ag340
ag343
ag352
ag361
ag370
ag376
ag379
ag382
ag385
ag388
ag391
ag397
ag403
ag406
ag409
ag415
ag424
ag427
ag433
ag436
ag439
ag442
ag445
ag448
ag454
ag457
ag460
ag463
ag466
ag469
ag472
ag475
ag487
ag493
ag499
ag505
ag508
ag529
ag532
ag535
ag538
ag547
ag559
ag562
ag565
ag577
ag580
ag583
ag595
ag607
ag610
ag616
ag619
ag628
ag631
ag637
ag640
ag643
ag646
ag649
ag652
ag655
ag658
ag664
ag667
ag670
ag673
ag685
ag691
ag694
ag706
ag709
ag718
ag724
ag727
ag733
ag739
ag742
ag751
ag760
ag763
ag769
ag784
ag787
ag790
ag793
ag796
ag799
ag802
ag811
ag817
ag823
ag829
ag832
ag835
ag844
ag847
ag850
ag856
ag859
ag865
ag868
ag871
ag874
ag877
ag880
ag889
ag892
ag895
ag898
ag901
ag904
ag910
ag925
ag928
ag934
ag937
ag940
ag952
ag958
ag964
ag967
ag970
ag973
ag976
ag982
ag985
ag994
ag1006
ag1018
ag1021
ag1030
ag1039
ag1042
ag1045
ag1048
ag1054
ag1057
ag1060
ag1063
ag1066
ag1072
ag1078
ag1081
ag1084
ag1093
ag1096
ag1099
ag1108
ag1114
ag1117
ag1120
ag1123
ag1126
ag1141
ag1144
ag1159
ag1162
ag1171
ag1177
ag1180
ag1183
ag1186
ag1195
ag1201
ag1204
ag1213
ag1216
ag1228
ag1240
ag1243
ag1249
ag1255
ag1264
ag1267
ag1270
ag1276
ag1282
ag1285
ag1291
ag1306
ag1312
ag1318
ag1321
ag1330
ag1339
ag1342
ag1345
ag1351
ag1357
ag1360
ag1363
ag1375
ag1384
ag1390
ag1399
ag1408
ag1411
ag1414
ag1429
ag1435
ag1441
ag1450
ag1453
ag1456
ag1459
ag1465
ag1471
ag1474
ag1480
ag1483
ag1486
ag1495
ag1504
ag1507
ag1513
ag1516
ag1519
ag1528
ag1540
ag1546
ag1549
ag1552
ag1555
ag1558
ag1564
ag1567
ag1570
ag1573
ag1576
ag1582
ag1585
ag1588
ag1591
ag1594
ag1597
ag1600
ag1606
ag1612
ag1618
ag1624
ag1627
ag1630
ag1636
ag1642
ag1651
ag1660
ag1663
ag1666
ag1672
ag1678
ag1681
ag1684
ag1687
ag1708
ag1714
ag1723
ag1726
ag1735
ag1738
ag1744
ag1747
ag1750
ag1756
ag1762
ag1765
ag1768
ag1777
ag1789
ag1801
ag1810
ag1813
ag1816
ag1819
ag1822
ag1825
ag1828
ag1831
ag1837
ag1840
ag1843
ag1849
ag1852
ag1855
ag1861
ag1873
ag1876
ag1879
ag1885
ag1894
ag1900
ag1903
ag1909
ag1912
ag1924
ag1930
ag1933
asS'Pvalb-IRES-Cre'
p1961
(lp1962
g1
ag127
ag142
ag148
ag193
ag226
ag235
ag250
ag295
ag328
ag346
ag421
ag541
ag571
ag574
ag592
ag598
ag601
ag625
ag682
ag766
ag778
ag838
ag883
ag886
ag991
ag1009
ag1027
ag1132
ag1147
ag1165
ag1198
ag1219
ag1279
ag1300
ag1315
ag1348
ag1354
ag1369
ag1387
ag1402
ag1405
ag1426
ag1444
ag1462
ag1543
ag1561
ag1579
ag1633
ag1729
ag1753
ag1795
ag1915
asS'Ndnf-IRES2-dgCre'
p1963
(lp1964
g25
ag97
ag373
ag418
ag481
ag502
ag679
ag814
ag943
ag997
ag1012
ag1153
ag1804
ag1867
ag1918
asS'Nkx2-1-CreERT2'
p1965
(lp1966
g49
ag58
ag64
ag103
ag172
ag178
ag337
ag514
ag553
ag604
ag700
ag712
ag916
ag979
ag1075
ag1111
ag1231
ag1489
ag1498
ag1654
ag1657
ag1858
ag1897
asS'Htr3a-Cre_NO152'
p1967
(lp1968
g7
ag52
ag79
ag130
ag169
ag181
ag187
ag205
ag262
ag283
ag367
ag451
ag544
ag550
ag586
ag622
ag676
ag688
ag697
ag703
ag715
ag730
ag754
ag826
ag919
ag931
ag949
ag988
ag1003
ag1033
ag1036
ag1102
ag1138
ag1168
ag1189
ag1207
ag1222
ag1225
ag1258
ag1297
ag1303
ag1327
ag1366
ag1381
ag1420
ag1432
ag1477
ag1522
ag1525
ag1531
ag1534
ag1621
ag1696
ag1711
ag1732
ag1771
ag1774
ag1798
ag1834
ag1864
ag1882
ag1888
asS'Chat-IRES-Cre-neo'
p1969
(lp1970
g73
ag322
ag412
ag484
ag520
ag556
ag613
ag808
ag1090
ag1288
ag1396
ag1423
ag1447
ag1603
ag1645
ag1675
ag1699
ag1870
asS'Rorb-IRES2-Cre-D'
p1971
(lp1972
g40
ag91
ag100
ag139
ag151
ag166
ag184
ag202
ag223
ag253
ag280
ag292
ag301
ag316
ag331
ag343
ag361
ag403
ag427
ag433
ag439
ag448
ag460
ag499
ag508
ag532
ag538
ag547
ag595
ag607
ag610
ag619
ag652
ag727
ag742
ag760
ag784
ag793
ag880
ag925
ag934
ag940
ag976
ag994
ag1006
ag1039
ag1060
ag1066
ag1120
ag1141
ag1162
ag1171
ag1177
ag1195
ag1213
ag1228
ag1276
ag1291
ag1321
ag1330
ag1342
ag1363
ag1384
ag1411
ag1450
ag1453
ag1519
ag1540
ag1546
ag1549
ag1552
ag1573
ag1576
ag1591
ag1594
ag1606
ag1651
ag1672
ag1678
ag1735
ag1756
ag1777
ag1801
ag1819
ag1849
ag1873
ag1900
ag1909
as(dp1973
g1937
(dp1974
S'LIF'
p1975
(dp1976
S'mean'
p1977
cnumpy.core.multiarray
scalar
p1978
(cnumpy
dtype
p1979
(S'f8'
p1980
I0
I1
tp1981
Rp1982
(I3
S'<'
p1983
NNNI-1
I-1
I0
tp1984
bS'\x92\xef\x1fQ\xc0|\xdf?'
p1985
tp1986
Rp1987
sS'median'
p1988
g1978
(g1982
S'\xb4\xfe\x97\x10\xcb\xd6\xde?'
p1989
tp1990
Rp1991
sS'quartiles'
p1992
(lp1993
g1978
(g1982
S'\xf0H#<\xf5\x05\xd6?'
p1994
tp1995
Rp1996
ag1978
(g1982
S'\xcd6\x1a\xe2q#\xe5?'
p1997
tp1998
Rp1999
asS'n'
p2000
I47
ssS'LIFRASC_LIFRASCAT'
p2001
(dp2002
S'p_value'
p2003
g1978
(g1982
S'\xc2\xb97\xcbzZu?'
p2004
tp2005
Rp2006
sS'bonferroni_p'
p2007
g1978
(g1982
S'\xbc\xb7\xa6EN\xb2\xef?'
p2008
tp2009
Rp2010
sS'Benjamini_Hochberg_p'
p2011
g1978
(g1982
S' \x8b\x8db\x9d\xad\x89?'
p2012
tp2013
Rp2014
sg2000
I14
ssS'LIFRASC'
p2015
(dp2016
g1977
g1978
(g1982
S'\xb9\x9c\x87\xfd;\xe7\xe5?'
p2017
tp2018
Rp2019
sg1988
g1978
(g1982
S'\xce\xa9\xa9\x7f\xbeq\xe6?'
p2020
tp2021
Rp2022
sg1992
(lp2023
g1978
(g1982
S'b\xd3\xd3V\xd6\xd2\xe1?'
p2024
tp2025
Rp2026
ag1978
(g1982
S'\xc6)e\xdc!F\xe9?'
p2027
tp2028
Rp2029
asg2000
I14
ssS'LIFR_LIFASC'
p2030
(dp2031
g2003
g1978
(g1982
S'\xa9g\xc1H\xe0\x14P?'
p2032
tp2033
Rp2034
sg2007
g1978
(g1982
S'\xdf\x15\xff\xeb\xfc\xde\xc7?'
p2035
tp2036
Rp2037
sg2011
g1978
(g1982
S'!\xe4\xdc\x1dcvi?'
p2038
tp2039
Rp2040
sg2000
I14
ssS'LIFR'
p2041
(dp2042
g1977
g1978
(g1982
S'\x11U#\x0f/\x80\xcf?'
p2043
tp2044
Rp2045
sg1988
g1978
(g1982
S'\xe0RE\xfd\xbcy\xc7?'
p2046
tp2047
Rp2048
sg1992
(lp2049
g1978
(g1982
S'd\xe4\xd9\xfa\xe2A\xb0?'
p2050
tp2051
Rp2052
ag1978
(g1982
S'0\xc0p*$\xd5\xe0?'
p2053
tp2054
Rp2055
asg2000
I14
ssS'LIFASC_LIFRASCAT'
p2056
(dp2057
g2003
g1978
(g1982
S'\x94\x87\x0c\x81!\x0e\x9f?'
p2058
tp2059
Rp2060
sg2007
g1978
(g1982
S'\xa0L\xc7\xdd|\x0c\x17@'
p2061
tp2062
Rp2063
sg2011
g1978
(g1982
S'\xf0R\xaf]\x03\x11\xab?'
p2064
tp2065
Rp2066
sg2000
I14
ssS'LIF_LIFASC'
p2067
(dp2068
g2003
g1978
(g1982
S'\x01\xea\xfc\xf1\x92\x02\x9e>'
p2069
tp2070
Rp2071
sg2007
g1978
(g1982
S'\xad\xb5\x99\x0f\xe9E\x16?'
p2072
tp2073
Rp2074
sg2011
g1978
(g1982
S'<\xf2\xcc\x14\x8c\xb2\xcd>'
p2075
tp2076
Rp2077
sg2000
I47
ssS'LIFASC_LIFRASC'
p2078
(dp2079
g2003
g1978
(g1982
S'\xf6QQ%\xc4\xc1l?'
p2080
tp2081
Rp2082
sg2007
g1978
(g1982
S'\xd5Z\xb2\x93\xcfW\xe5?'
p2083
tp2084
Rp2085
sg2011
g1978
(g1982
S'\xe8\xdb\x98\xb90\xb6\x82?'
p2086
tp2087
Rp2088
sg2000
I14
ssS'LIF_LIFRASCAT'
p2089
(dp2090
g2003
g1978
(g1982
S'z\xb2P\xae\xeb\xfe\xe2?'
p2091
tp2092
Rp2093
sg2007
g1978
(g1982
S'\xed\xc8\xbf\xd6e2\\@'
p2094
tp2095
Rp2096
sg2011
g1978
(g1982
S'\xac\xc0\xa2m\xbe\x81\xe4?'
p2097
tp2098
Rp2099
sg2000
I14
ssS'LIFR_LIFRASC'
p2100
(dp2101
g2003
g1978
(g1982
S'\xa9g\xc1H\xe0\x14P?'
p2102
tp2103
Rp2104
sg2007
g1978
(g1982
S'\xdf\x15\xff\xeb\xfc\xde\xc7?'
p2105
tp2106
Rp2107
sg2011
g1978
(g1982
S'\x1dC\xc2I\xde\xe4i?'
p2108
tp2109
Rp2110
sg2000
I14
ssS'LIFRASCAT'
p2111
(dp2112
g1977
g1978
(g1982
S'\x0c\xdc\x88\xc3\xb5>\xe0?'
p2113
tp2114
Rp2115
sg1988
g1978
(g1982
S'\x9b4\xf66\xad\xe7\xe1?'
p2116
tp2117
Rp2118
sg1992
(lp2119
g1978
(g1982
S'aq\x90\x06\xael\xcb?'
p2120
tp2121
Rp2122
ag1978
(g1982
S'\xfay%\xeeXV\xe7?'
p2123
tp2124
Rp2125
asg2000
I14
ssS'LIFR_LIFRASCAT'
p2126
(dp2127
g2003
g1978
(g1982
S'\x89\x8e$\xf8&\x03\x93?'
p2128
tp2129
Rp2130
sg2007
g1978
(g1982
S'\x93CV\xd8\xad8\x0c@'
p2131
tp2132
Rp2133
sg2011
g1978
(g1982
S'5T\xbck\xcb\x0f\xa2?'
p2134
tp2135
Rp2136
sg2000
I14
ssS'LIFASC'
p2137
(dp2138
g1977
g1978
(g1982
S'\x8a\t\xe0B\xf4~\xe4?'
p2139
tp2140
Rp2141
sg1988
g1978
(g1982
S'\x96\xf6#\xaaj!\xe4?'
p2142
tp2143
Rp2144
sg1992
(lp2145
g1978
(g1982
S'\xd8d\x1c\xae\x05\xcf\xdc?'
p2146
tp2147
Rp2148
ag1978
(g1982
S'q\x12\xe5,\xf8#\xea?'
p2149
tp2150
Rp2151
asg2000
I47
ssS'LIF_LIFRASC'
p2152
(dp2153
g2003
g1978
(g1982
S'\x89\xdbYZg\xeb^?'
p2154
tp2155
Rp2156
sg2007
g1978
(g1982
S'\xf0\xb0\x0e\xb5\xb6\xf2\xd6?'
p2157
tp2158
Rp2159
sg2011
g1978
(g1982
S's\xf9\xd5\x82\x02Iu?'
p2160
tp2161
Rp2162
sg2000
I14
ssS'LIF_LIFR'
p2163
(dp2164
g2003
g1978
(g1982
S'\xa9g\xc1H\xe0\x14P?'
p2165
tp2166
Rp2167
sg2007
g1978
(g1982
S'\xdf\x15\xff\xeb\xfc\xde\xc7?'
p2168
tp2169
Rp2170
sg2011
g1978
(g1982
S'\x9a\xcf$C\x87\x0bi?'
p2171
tp2172
Rp2173
sg2000
I14
sssg1965
(dp2174
g1975
(dp2175
g1977
g1978
(g1982
S'\x9c\x95\xae\xec\xcee\xe8?'
p2176
tp2177
Rp2178
sg1988
g1978
(g1982
S'\x99\xaf\xd1j(2\xe8?'
p2179
tp2180
Rp2181
sg1992
(lp2182
g1978
(g1982
S'\xd3Z\x93/8\xd4\xe2?'
p2183
tp2184
Rp2185
ag1978
(g1982
S'\x18\xd6QT\x14*\xef?'
p2186
tp2187
Rp2188
asg2000
I23
ssg2001
(dp2189
g2003
g1978
(g1982
S'\x10\xa88\x02c#\xc6?'
p2190
tp2191
Rp2192
sg2007
g1978
(g1982
S'\xbc\x0c\xa6{Cn@@'
p2193
tp2194
Rp2195
sg2011
g1978
(g1982
S'2\xfa\x98M\xcd5\xcd?'
p2196
tp2197
Rp2198
sg2000
I6
ssg2015
(dp2199
g1977
g1978
(g1982
S'\xd7\xa1\xe6\x84\x94\x8e\xe9?'
p2200
tp2201
Rp2202
sg1988
g1978
(g1982
S'\x9aN\xa3c4\xd9\xe9?'
p2203
tp2204
Rp2205
sg1992
(lp2206
g1978
(g1982
S'\x1c;F|\x9ao\xe1?'
p2207
tp2208
Rp2209
ag1978
(g1982
S'y\xa5F\x10O$\xef?'
p2210
tp2211
Rp2212
asg2000
I6
ssg2030
(dp2213
g2003
g1978
(g1982
S'\x10\xa88\x02c#\xc6?'
p2214
tp2215
Rp2216
sg2007
g1978
(g1982
S'\xbc\x0c\xa6{Cn@@'
p2217
tp2218
Rp2219
sg2011
g1978
(g1982
S'f9F\xc7]\xcf\xcc?'
p2220
tp2221
Rp2222
sg2000
I6
ssg2041
(dp2223
g1977
g1978
(g1982
S'\xfcw%\xe0\xa7\xc9\xe5?'
p2224
tp2225
Rp2226
sg1988
g1978
(g1982
S'`\x97\x07\x18\x1c\xac\xe2?'
p2227
tp2228
Rp2229
sg1992
(lp2230
g1978
(g1982
S'\xd2u/\x15\xad=\xe0?'
p2231
tp2232
Rp2233
ag1978
(g1982
S'i)\xdd=c[\xee?'
p2234
tp2235
Rp2236
asg2000
I6
ssg2056
(dp2237
g2003
g1978
(g1982
S'\xbcZv\xf5\xcf\x1b\xd6?'
p2238
tp2239
Rp2240
sg2007
g1978
(g1982
S'X\xd7-X\xa4hP@'
p2241
tp2242
Rp2243
sg2011
g1978
(g1982
S'\x98\xbc\xb0/\r\xee\xd9?'
p2244
tp2245
Rp2246
sg2000
I6
ssg2067
(dp2247
g2003
g1978
(g1982
S'\x14\xa24\xcd\xa7\xe6\xc5?'
p2248
tp2249
Rp2250
sg2007
g1978
(g1982
S'K\x10M\x8a0A@@'
p2251
tp2252
Rp2253
sg2011
g1978
(g1982
S'\xf9@T\x02g\x19\xcd?'
p2254
tp2255
Rp2256
sg2000
I23
ssg2078
(dp2257
g2003
g1978
(g1982
S'\x9b\xf5\x9f\x9c\xab4\xe3?'
p2258
tp2259
Rp2260
sg2007
g1978
(g1982
S'\x92p}\xbc.\x82\\@'
p2261
tp2262
Rp2263
sg2011
g1978
(g1982
S'Un, \xc8\x9d\xe4?'
p2264
tp2265
Rp2266
sg2000
I6
ssg2089
(dp2267
g2003
g1978
(g1982
S'\x10\xa88\x02c#\xc6?'
p2268
tp2269
Rp2270
sg2007
g1978
(g1982
S'\xbc\x0c\xa6{Cn@@'
p2271
tp2272
Rp2273
sg2011
g1978
(g1982
S'\xe9\xb8d\x1d;\x02\xcd?'
p2274
tp2275
Rp2276
sg2000
I6
ssg2100
(dp2277
g2003
g1978
(g1982
S'\xcb\x05\x11\x99q\xa8\xbd?'
p2278
tp2279
Rp2280
sg2007
g1978
(g1982
S'M\xa2\x9aO\x04\x036@'
p2281
tp2282
Rp2283
sg2011
g1978
(g1982
S'X/7\x96\x8b\xb7\xc4?'
p2284
tp2285
Rp2286
sg2000
I6
ssg2111
(dp2287
g1977
g1978
(g1982
S'\xdba\xfb\xad\x91\xd0\xe7?'
p2288
tp2289
Rp2290
sg1988
g1978
(g1982
S'\xda\x81C\x1d\x83\x8c\xe7?'
p2291
tp2292
Rp2293
sg1992
(lp2294
g1978
(g1982
S'\xde\xc8\xeb{\xdb\n\xe2?'
p2295
tp2296
Rp2297
ag1978
(g1982
S'\x8e\x08\xdb\xe8Ei\xed?'
p2298
tp2299
Rp2300
asg2000
I6
ssg2126
(dp2301
g2003
g1978
(g1982
S'\x10\xa88\x02c#\xc6?'
p2302
tp2303
Rp2304
sg2007
g1978
(g1982
S'\xbc\x0c\xa6{Cn@@'
p2305
tp2306
Rp2307
sg2011
g1978
(g1982
S'F\x9ca\x9a1\x9d\xcc?'
p2308
tp2309
Rp2310
sg2000
I6
ssg2137
(dp2311
g1977
g1978
(g1982
S'\xee\xf5/\xdb\xe88\xe9?'
p2312
tp2313
Rp2314
sg1988
g1978
(g1982
S'y\xdd\xa8\x88e\x7f\xe9?'
p2315
tp2316
Rp2317
sg1992
(lp2318
g1978
(g1982
S'\xfa\x08`.\x8d\xbb\xe1?'
p2319
tp2320
Rp2321
ag1978
(g1982
S"\x98'\x11J\x8be\xee?"
p2322
tp2323
Rp2324
asg2000
I23
ssg2152
(dp2325
g2003
g1978
(g1982
S'\xc0\xa4M\x9c\xf4\xa2\xdd?'
p2326
tp2327
Rp2328
sg2007
g1978
(g1982
S'F\xa0\x01\x8c\xf1\xfeU@'
p2329
tp2330
Rp2331
sg2011
g1978
(g1982
S'\x8bU\x87!>\xc2\xe0?'
p2332
tp2333
Rp2334
sg2000
I6
ssg2163
(dp2335
g2003
g1978
(g1982
S'\xcb\x05\x11\x99q\xa8\xbd?'
p2336
tp2337
Rp2338
sg2007
g1978
(g1982
S'M\xa2\x9aO\x04\x036@'
p2339
tp2340
Rp2341
sg2011
g1978
(g1982
S'\x8b\xfc\xfaO\xd5\x90\xc4?'
p2342
tp2343
Rp2344
sg2000
I6
sssg1939
(dp2345
g1975
(dp2346
g1977
g1978
(g1982
S'\xeb\x8beH>\x97\xe4?'
p2347
tp2348
Rp2349
sg1988
g1978
(g1982
S'_\x92\x08\xbc\xe6\xef\xe4?'
p2350
tp2351
Rp2352
sg1992
(lp2353
g1978
(g1982
S'.\xeb\x93_S\xf1\xd1?'
p2354
tp2355
Rp2356
ag1978
(g1982
S'\xf2\x93\xb6\x819\x85\xee?'
p2357
tp2358
Rp2359
asg2000
I283
ssg2001
(dp2360
g2003
g1978
(g1982
S'\xa17`\tFz\xdd>'
p2361
tp2362
Rp2363
sg2007
g1978
(g1982
S'Ii\xf5\xfa\xbf\xe0U?'
p2364
tp2365
Rp2366
sg2011
g1978
(g1982
S'T\x9f\x8cFK\x97\x04?'
p2367
tp2368
Rp2369
sg2000
I110
ssg2015
(dp2370
g1977
g1978
(g1982
S'\xe6\xa1R\xf8\xb5\xe5\xe8?'
p2371
tp2372
Rp2373
sg1988
g1978
(g1982
S'O\x13\x80\xc8UW\xea?'
p2374
tp2375
Rp2376
sg1992
(lp2377
g1978
(g1982
S'\xbfqN\xb5\xc7J\xde?'
p2378
tp2379
Rp2380
ag1978
(g1982
S'\xd4\x18k8O\xe1\xee?'
p2381
tp2382
Rp2383
asg2000
I110
ssg2030
(dp2384
g2003
g1978
(g1982
S'\xba\xd5\x93W\xc6O8='
p2385
tp2386
Rp2387
sg2007
g1978
(g1982
S'\xa0\xb8\xff45\x0b\xb2='
p2388
tp2389
Rp2390
sg2011
g1978
(g1982
S"\xde\xb3\xff\xaf'?s="
p2391
tp2392
Rp2393
sg2000
I110
ssg2041
(dp2394
g1977
g1978
(g1982
S'\xcc\xd3\xdf\xf6\xd8#\xe3?'
p2395
tp2396
Rp2397
sg1988
g1978
(g1982
S'&\xde\xe2\xdc\xc0\x88\xe3?'
p2398
tp2399
Rp2400
sg1992
(lp2401
g1978
(g1982
S'\x96\x83\x03\xf7$\x96\xd0?'
p2402
tp2403
Rp2404
ag1978
(g1982
S'a\x0e\xf4)\x81\x1e\xed?'
p2405
tp2406
Rp2407
asg2000
I110
ssg2056
(dp2408
g2003
g1978
(g1982
S'"c\xa2\x83\xcf)\xca>'
p2409
tp2410
Rp2411
sg2007
g1978
(g1982
S'\x93\x85\xb2\x03\x08kC?'
p2412
tp2413
Rp2414
sg2011
g1978
(g1982
S'\x8f?\x97\x1cc\x0b\xf4>'
p2415
tp2416
Rp2417
sg2000
I110
ssg2067
(dp2418
g2003
g1978
(g1982
S'\xca\xd8\x9f%\xfa:R:'
p2419
tp2420
Rp2421
sg2007
g1978
(g1982
S'\xccE\xd9O\x8b\x0f\xcb:'
p2422
tp2423
Rp2424
sg2011
g1978
(g1982
S'p\xd1\xad\x0c\t\xa6\xa5:'
p2425
tp2426
Rp2427
sg2000
I283
ssg2078
(dp2428
g2003
g1978
(g1982
S'\xa4\xc4{)z\x0c\xc7?'
p2429
tp2430
Rp2431
sg2007
g1978
(g1982
S'\xf2\xdb\xc9\xaaB\x1bA@'
p2432
tp2433
Rp2434
sg2011
g1978
(g1982
S'\xb9Cl\x06q\x00\xcd?'
p2435
tp2436
Rp2437
sg2000
I110
ssg2089
(dp2438
g2003
g1978
(g1982
S'\x0e\xe3\x9d_g\xa1p?'
p2439
tp2440
Rp2441
sg2007
g1978
(g1982
S'\t]\xeeq\x95\xaf\xe8?'
p2442
tp2443
Rp2444
sg2011
g1978
(g1982
S'x\xfd\xc7#\xb6\x10\x85?'
p2445
tp2446
Rp2447
sg2000
I110
ssg2100
(dp2448
g2003
g1978
(g1982
S'\x8bs\xdd/\x01\xcf!='
p2449
tp2450
Rp2451
sg2007
g1978
(g1982
S'\x82\xb7\x0c\xc3Eo\x9a='
p2452
tp2453
Rp2454
sg2011
g1978
(g1982
S'\x02d\xc5\x95\x066^='
p2455
tp2456
Rp2457
sg2000
I110
ssg2111
(dp2458
g1977
g1978
(g1982
S'\x96\xa8\x9b\x88D\xaf\xe6?'
p2459
tp2460
Rp2461
sg1988
g1978
(g1982
S'\x9cg\x13&\x7f\x1c\xe8?'
p2462
tp2463
Rp2464
sg1992
(lp2465
g1978
(g1982
S'\xf7\xb3\xf65&\xe7\xd7?'
p2466
tp2467
Rp2468
ag1978
(g1982
S'\x0c\x87\xbc\x95\xb9R\xef?'
p2469
tp2470
Rp2471
asg2000
I110
ssg2126
(dp2472
g2003
g1978
(g1982
S'\xf9\x1cP\x82\xef\x06\xb4>'
p2473
tp2474
Rp2475
sg2007
g1978
(g1982
S'\x02\xebn\x85K\xba-?'
p2476
tp2477
Rp2478
sg2011
g1978
(g1982
S'\xac\xbaA\xf0\xcd\x9d\xe1>'
p2479
tp2480
Rp2481
sg2000
I110
ssg2137
(dp2482
g1977
g1978
(g1982
S'\xd4\xd6\x87<\xd6>\xe8?'
p2483
tp2484
Rp2485
sg1988
g1978
(g1982
S'\xaa\x15\xc0\xcd.\xaf\xe9?'
p2486
tp2487
Rp2488
sg1992
(lp2489
g1978
(g1982
S'\xc6=\x00(K5\xd9?'
p2490
tp2491
Rp2492
ag1978
(g1982
S'^\x83\xfee\xdeE\xef?'
p2493
tp2494
Rp2495
asg2000
I283
ssg2152
(dp2496
g2003
g1978
(g1982
S'\x84\x12k\x15hp\xf4='
p2497
tp2498
Rp2499
sg2007
g1978
(g1982
S'|\xef\xca\x7f\xdaVn>'
p2500
tp2501
Rp2502
sg2011
g1978
(g1982
S".$\xfcH\x9a\x1d'>"
p2503
tp2504
Rp2505
sg2000
I110
ssg2163
(dp2506
g2003
g1978
(g1982
S'vC\xc0t8?\xa5>'
p2507
tp2508
Rp2509
sg2007
g1978
(g1982
S'#dM\xcd\xd7\x89\x1f?'
p2510
tp2511
Rp2512
sg2011
g1978
(g1982
S'\xb0\xd9\xe9nB/\xd4>'
p2513
tp2514
Rp2515
sg2000
I110
sssg1941
(dp2516
g1975
(dp2517
g1977
g1978
(g1982
S'\xf6\xbf\xe3D\xd2\xfb\xe0?'
p2518
tp2519
Rp2520
sg1988
g1978
(g1982
S'\x84\xd1\x8f4\xa2\x0e\xe1?'
p2521
tp2522
Rp2523
sg1992
(lp2524
g1978
(g1982
S'\xba\x9d%\x8d\xe1\t\xd4?'
p2525
tp2526
Rp2527
ag1978
(g1982
S'4\x99D\x82\x97?\xe9?'
p2528
tp2529
Rp2530
asg2000
I56
ssg2001
(dp2531
g2003
g1978
(g1982
S'!\xfb2\xf6\x96\xb2O?'
p2532
tp2533
Rp2534
sg2007
g1978
(g1982
S'b\xd6\xb9\n\x8c\x86\xc7?'
p2535
tp2536
Rp2537
sg2011
g1978
(g1982
S'\xb9b\xd40\xe9\xe2j?'
p2538
tp2539
Rp2540
sg2000
I19
ssg2015
(dp2541
g1977
g1978
(g1982
S'\xbb\xbbv0\xe9\xbf\xe5?'
p2542
tp2543
Rp2544
sg1988
g1978
(g1982
S'\x18\x0c@F\xe4\xdf\xe5?'
p2545
tp2546
Rp2547
sg1992
(lp2548
g1978
(g1982
S'\x02\xf5\xcejF\x19\xde?'
p2549
tp2550
Rp2551
ag1978
(g1982
S'g?(\xcf4F\xec?'
p2552
tp2553
Rp2554
asg2000
I19
ssg2030
(dp2555
g2003
g1978
(g1982
S'JF\xab\\\x93\x01,?'
p2556
tp2557
Rp2558
sg2007
g1978
(g1982
S'+\x1e\xc7^+\xc9\xa4?'
p2559
tp2560
Rp2561
sg2011
g1978
(g1982
S'\xa7T\xc8\x03\xd9ML?'
p2562
tp2563
Rp2564
sg2000
I19
ssg2041
(dp2565
g1977
g1978
(g1982
S'\xd3\x86J\x95t\x94\xd0?'
p2566
tp2567
Rp2568
sg1988
g1978
(g1982
S'\xfc:\x05\x8b\x80\x0f\xcd?'
p2569
tp2570
Rp2571
sg1992
(lp2572
g1978
(g1982
S'\xe0\xefz\x15T\x9b\xb6?'
p2573
tp2574
Rp2575
ag1978
(g1982
S'\xc3D-\x17\xd7\xd6\xe2?'
p2576
tp2577
Rp2578
asg2000
I19
ssg2056
(dp2579
g2003
g1978
(g1982
S'\x12\xd9Q\xac\xab\xdbs?'
p2580
tp2581
Rp2582
sg2007
g1978
(g1982
S'7~\xc9\xd3\x12z\xed?'
p2583
tp2584
Rp2585
sg2011
g1978
(g1982
S'\xaa\x0b"l\xa6/\x88?'
p2586
tp2587
Rp2588
sg2000
I19
ssg2067
(dp2589
g2003
g1978
(g1982
S'\xd6\xd2\xd7U\xf4\xce\xbc>'
p2590
tp2591
Rp2592
sg2007
g1978
(g1982
S'{.\xb6W\x99a5?'
p2593
tp2594
Rp2595
sg2011
g1978
(g1982
S'C~b\xad\x8ao\xe8>'
p2596
tp2597
Rp2598
sg2000
I56
ssg2078
(dp2599
g2003
g1978
(g1982
S'(\xa4D\xfc\xa5\x81q?'
p2600
tp2601
Rp2602
sg2007
g1978
(g1982
S'\xab\xe3ubr\xfc\xe9?'
p2603
tp2604
Rp2605
sg2011
g1978
(g1982
S'\xb6\x84\x15sN\x99\x85?'
p2606
tp2607
Rp2608
sg2000
I19
ssg2089
(dp2609
g2003
g1978
(g1982
S'\xa0\xcfZn\xbe)\xcb?'
p2610
tp2611
Rp2612
sg2007
g1978
(g1982
S'\x19f\xe7U\xfb(D@'
p2613
tp2614
Rp2615
sg2011
g1978
(g1982
S'L7b!\xaf\xdd\xd0?'
p2616
tp2617
Rp2618
sg2000
I19
ssg2100
(dp2619
g2003
g1978
(g1982
S'\xa187\x8b&T$?'
p2620
tp2621
Rp2622
sg2007
g1978
(g1982
S'\x0f\xf8\xa56\xe9,\x9e?'
p2623
tp2624
Rp2625
sg2011
g1978
(g1982
S'\x17\xfa?^\xc5tF?'
p2626
tp2627
Rp2628
sg2000
I19
ssg2111
(dp2629
g1977
g1978
(g1982
S'\x17uY\xd3\xb1\xaf\xe1?'
p2630
tp2631
Rp2632
sg1988
g1978
(g1982
S'.\x9e\xbb\x88|B\xe3?'
p2633
tp2634
Rp2635
sg1992
(lp2636
g1978
(g1982
S'\xf6\xa4\xd4\xff\xab\xdc\xcc?'
p2637
tp2638
Rp2639
ag1978
(g1982
S'\xf0~ }U\x04\xe9?'
p2640
tp2641
Rp2642
asg2000
I19
ssg2126
(dp2643
g2003
g1978
(g1982
S'OX\x05&r\x0cU?'
p2644
tp2645
Rp2646
sg2007
g1978
(g1982
S'\x15\xefopy>\xcf?'
p2647
tp2648
Rp2649
sg2011
g1978
(g1982
S'\xfdEj\xc1k\xc3n?'
p2650
tp2651
Rp2652
sg2000
I19
ssg2137
(dp2653
g1977
g1978
(g1982
S'?o\xe0kl\xe1\xe4?'
p2654
tp2655
Rp2656
sg1988
g1978
(g1982
S'\xfcXMC~\xf5\xe5?'
p2657
tp2658
Rp2659
sg1992
(lp2660
g1978
(g1982
S'u\xeb\x0b\x8c\xb5\xb9\xd8?'
p2661
tp2662
Rp2663
ag1978
(g1982
S'\x04\xa9\xaf2\x19D\xeb?'
p2664
tp2665
Rp2666
asg2000
I56
ssg2152
(dp2667
g2003
g1978
(g1982
S'\x90D\xc1\xe8\xb8\x17:?'
p2668
tp2669
Rp2670
sg2007
g1978
(g1982
S'\xe3p\xbf<\x9b]\xb3?'
p2671
tp2672
Rp2673
sg2011
g1978
(g1982
S'\xb3\x97J[OMX?'
p2674
tp2675
Rp2676
sg2000
I19
ssg2163
(dp2677
g2003
g1978
(g1982
S't\xb3s\xb9\xe0\x91.?'
p2678
tp2679
Rp2680
sg2007
g1978
(g1982
S'0\xdf\xa3\xc9D\xb0\xa6?'
p2681
tp2682
Rp2683
sg2011
g1978
(g1982
S'\x95)\x85\xb7[@N?'
p2684
tp2685
Rp2686
sg2000
I19
sssg1943
(dp2687
g1975
(dp2688
g1977
g1978
(g1982
S'\\\t\xae+\xca5\xe1?'
p2689
tp2690
Rp2691
sg1988
g1978
(g1982
S'\xe0\x93eaB\xcb\xe2?'
p2692
tp2693
Rp2694
sg1992
(lp2695
g1978
(g1982
S'\x96I>\xdcz\x1b\xcd?'
p2696
tp2697
Rp2698
ag1978
(g1982
S' \xb5;lu|\xe9?'
p2699
tp2700
Rp2701
asg2000
I20
ssg2001
(dp2702
g2003
g1978
(g1982
S'\xfc\x0bP-\xe1\x90\xc6?'
p2703
tp2704
Rp2705
sg2007
g1978
(g1982
S'\xe5h\xa1\x1f\x87\xbf@@'
p2706
tp2707
Rp2708
sg2011
g1978
(g1982
S'\xc8\xa8\xa9}a\x95\xcc?'
p2709
tp2710
Rp2711
sg2000
I7
ssg2015
(dp2712
g1977
g1978
(g1982
S'\xe4\x10rT\xa1[\xe0?'
p2713
tp2714
Rp2715
sg1988
g1978
(g1982
S'=N`\xd9\xe2\x96\xe3?'
p2716
tp2717
Rp2718
sg1992
(lp2719
g1978
(g1982
S"\xa8\xe6m\xb7'#\xd2?"
p2720
tp2721
Rp2722
ag1978
(g1982
S'\n\xdfId\xd4s\xe5?'
p2723
tp2724
Rp2725
asg2000
I7
ssg2030
(dp2726
g2003
g1978
(g1982
S'.\nR\xac<y\xd9?'
p2727
tp2728
Rp2729
sg2007
g1978
(g1982
S'\x8e\xe3\xe4\x07\xfb\xe7R@'
p2730
tp2731
Rp2732
sg2011
g1978
(g1982
S'\x8c\x05xv\x17\x83\xdd?'
p2733
tp2734
Rp2735
sg2000
I7
ssg2041
(dp2736
g1977
g1978
(g1982
S'#\xc1\xc1v\x08\x18\xde?'
p2737
tp2738
Rp2739
sg1988
g1978
(g1982
S'_\x07\xdd\xaa\x0bS\xdc?'
p2740
tp2741
Rp2742
sg1992
(lp2743
g1978
(g1982
S'&\x04\xc4\xb7EV\xd7?'
p2744
tp2745
Rp2746
ag1978
(g1982
S'\xaaB\xce\xdf\xf6\xe4\xe3?'
p2747
tp2748
Rp2749
asg2000
I7
ssg2056
(dp2750
g2003
g1978
(g1982
S'\x00\xe2>\x0c$\xdf\xd3?'
p2751
tp2752
Rp2753
sg2007
g1978
(g1982
S'xW-\x829\x7fM@'
p2754
tp2755
Rp2756
sg2011
g1978
(g1982
S'`\xac\x8a\xce\xfa\x98\xd7?'
p2757
tp2758
Rp2759
sg2000
I7
ssg2067
(dp2760
g2003
g1978
(g1982
S'\xfcuC\x9f\rT\xea?'
p2761
tp2762
Rp2763
sg2007
g1978
(g1982
S'\x91\x114\x1cb\x8ac@'
p2764
tp2765
Rp2766
sg2011
g1978
(g1982
S'#\xa9\x05j\xd6/\xeb?'
p2767
tp2768
Rp2769
sg2000
I20
ssg2078
(dp2770
g2003
g1978
(g1982
S'.\xf4\x8bDh\xb4\xeb?'
p2771
tp2772
Rp2773
sg2007
g1978
(g1982
S':\xdf\xdfb\xe5\x8fd@'
p2774
tp2775
Rp2776
sg2011
g1978
(g1982
S'90tq0&\xec?'
p2777
tp2778
Rp2779
sg2000
I7
ssg2089
(dp2780
g2003
g1978
(g1982
S'.\nR\xac<y\xd9?'
p2781
tp2782
Rp2783
sg2007
g1978
(g1982
S'\x8e\xe3\xe4\x07\xfb\xe7R@'
p2784
tp2785
Rp2786
sg2011
g1978
(g1982
S'|\xb5\xd0 q\xb1\xdd?'
p2787
tp2788
Rp2789
sg2000
I7
ssg2100
(dp2790
g2003
g1978
(g1982
S'\xf9D&\x84=\x96\xe3?'
p2791
tp2792
Rp2793
sg2007
g1978
(g1982
S'b\xce(P\x03\x13]@'
p2794
tp2795
Rp2796
sg2011
g1978
(g1982
S'\x1a\xe5\x9d\xc2`\xca\xe4?'
p2797
tp2798
Rp2799
sg2000
I7
ssg2111
(dp2800
g1977
g1978
(g1982
S'r\xc4\xab\x15\xf2\x8e\xdc?'
p2801
tp2802
Rp2803
sg1988
g1978
(g1982
S'C\xa9\x9c4{>\xe0?'
p2804
tp2805
Rp2806
sg1992
(lp2807
g1978
(g1982
S'\x83\xfaI\xc2A\xfa\xb3?'
p2808
tp2809
Rp2810
ag1978
(g1982
S'!\xc4\xbf\x0b\xb2\xce\xe7?'
p2811
tp2812
Rp2813
asg2000
I7
ssg2126
(dp2814
g2003
g1978
(g1982
S'\xf9D&\x84=\x96\xe3?'
p2815
tp2816
Rp2817
sg2007
g1978
(g1982
S'b\xce(P\x03\x13]@'
p2818
tp2819
Rp2820
sg2011
g1978
(g1982
S'\xab\xa5\x8ajG\xe8\xe4?'
p2821
tp2822
Rp2823
sg2000
I7
ssg2137
(dp2824
g1977
g1978
(g1982
S'\x94\x98\xeaL\xf7\xc6\xe1?'
p2825
tp2826
Rp2827
sg1988
g1978
(g1982
S'\xca\x8b\x9e@\x18\x03\xe2?'
p2828
tp2829
Rp2830
sg1992
(lp2831
g1978
(g1982
S'Q5\x92!f\xf1\xd3?'
p2832
tp2833
Rp2834
ag1978
(g1982
S'\xb1$UR!!\xea?'
p2835
tp2836
Rp2837
asg2000
I20
ssg2152
(dp2838
g2003
g1978
(g1982
S'\xc2\xb0O\xde\xb6\x87\xe7?'
p2839
tp2840
Rp2841
sg2007
g1978
(g1982
S'0%\xff\xb8\xb9va@'
p2842
tp2843
Rp2844
sg2011
g1978
(g1982
S'\xec\x0c\n4~\x90\xe8?'
p2845
tp2846
Rp2847
sg2000
I7
ssg2163
(dp2848
g2003
g1978
(g1982
S'.\nR\xac<y\xd9?'
p2849
tp2850
Rp2851
sg2007
g1978
(g1982
S'\x8e\xe3\xe4\x07\xfb\xe7R@'
p2852
tp2853
Rp2854
sg2011
g1978
(g1982
S'\xc8I\xa4\x9fMU\xdd?'
p2855
tp2856
Rp2857
sg2000
I7
sssg1945
(dp2858
g1975
(dp2859
g1977
g1978
(g1982
S'\xda6H\xda\xcd\x86\xe0?'
p2860
tp2861
Rp2862
sg1988
g1978
(g1982
S'\xb1\x92\xf2\xa77A\xe0?'
p2863
tp2864
Rp2865
sg1992
(lp2866
g1978
(g1982
S'v\xb9\xb9G-\xa4\xd0?'
p2867
tp2868
Rp2869
ag1978
(g1982
S'\x07\xc9\xcf2X}\xe9?'
p2870
tp2871
Rp2872
asg2000
I19
ssg2001
(dp2873
g2003
g1978
(g1982
S'\xff\x929[\xf7\xff\x87?'
p2874
tp2875
Rp2876
sg2007
g1978
(g1982
S'\x19\xbb\xb4\x95\xf9\xcf\x01@'
p2877
tp2878
Rp2879
sg2011
g1978
(g1982
S'\xa1z\xe53\x18\x84\x98?'
p2880
tp2881
Rp2882
sg2000
I8
ssg2015
(dp2883
g1977
g1978
(g1982
S'\x18\xb4>\\\xf2\xdc\xe6?'
p2884
tp2885
Rp2886
sg1988
g1978
(g1982
S'\xcd\x98\xb1|\x02\xd1\xe8?'
p2887
tp2888
Rp2889
sg1992
(lp2890
g1978
(g1982
S'\x99\xbcA~\xb8\xdb\xe0?'
p2891
tp2892
Rp2893
ag1978
(g1982
S'\xbd\xc4\xa0R\xc4}\xea?'
p2894
tp2895
Rp2896
asg2000
I8
ssg2030
(dp2897
g2003
g1978
(g1982
S'\xff\x929[\xf7\xff\x87?'
p2898
tp2899
Rp2900
sg2007
g1978
(g1982
S'\x19\xbb\xb4\x95\xf9\xcf\x01@'
p2901
tp2902
Rp2903
sg2011
g1978
(g1982
S'\x92\x1a3\x1eP\xc8\x98?'
p2904
tp2905
Rp2906
sg2000
I8
ssg2041
(dp2907
g1977
g1978
(g1982
S'f\xa2\xc8\xf5[\xe0\xdd?'
p2908
tp2909
Rp2910
sg1988
g1978
(g1982
S'<d\x8d=\xea#\xd7?'
p2911
tp2912
Rp2913
sg1992
(lp2914
g1978
(g1982
S'\xb0\xe6\x94u.@\xd3?'
p2915
tp2916
Rp2917
ag1978
(g1982
S'\x96\xe1\x05_,\xa9\xe6?'
p2918
tp2919
Rp2920
asg2000
I8
ssg2056
(dp2921
g2003
g1978
(g1982
S'\xfb\xa3\xbd\x16\x8b\xb4\x91?'
p2922
tp2923
Rp2924
sg2007
g1978
(g1982
S'i\x7f\xc1u\xfeG\n@'
p2925
tp2926
Rp2927
sg2011
g1978
(g1982
S'\xa3.\xd7\xbf\xca)\xa1?'
p2928
tp2929
Rp2930
sg2000
I8
ssg2067
(dp2931
g2003
g1978
(g1982
S'\xa187\x8b&T$?'
p2932
tp2933
Rp2934
sg2007
g1978
(g1982
S'\x0f\xf8\xa56\xe9,\x9e?'
p2935
tp2936
Rp2937
sg2011
g1978
(g1982
S'\xf4\xe22\xf9\x1d\xf2E?'
p2938
tp2939
Rp2940
sg2000
I19
ssg2078
(dp2941
g2003
g1978
(g1982
S'\xe9rV\xe7\xcf\xa9\x99?'
p2942
tp2943
Rp2944
sg2007
g1978
(g1982
S'I)\xb2M\x08\x0c\x13@'
p2945
tp2946
Rp2947
sg2011
g1978
(g1982
S'\x04+\x8b\xa0\x1d8\xa7?'
p2948
tp2949
Rp2950
sg2000
I8
ssg2089
(dp2951
g2003
g1978
(g1982
S'2\r2\xf2\xbc\xce\xd0?'
p2952
tp2953
Rp2954
sg2007
g1978
(g1982
S'\x96K\x82w\xe0\xf2H@'
p2955
tp2956
Rp2957
sg2011
g1978
(g1982
S'\x15Ve\x9f"W\xd4?'
p2958
tp2959
Rp2960
sg2000
I8
ssg2100
(dp2961
g2003
g1978
(g1982
S'\xff\x929[\xf7\xff\x87?'
p2962
tp2963
Rp2964
sg2007
g1978
(g1982
S'\x19\xbb\xb4\x95\xf9\xcf\x01@'
p2965
tp2966
Rp2967
sg2011
g1978
(g1982
S'8\x042\xdcSA\x98?'
p2968
tp2969
Rp2970
sg2000
I8
ssg2111
(dp2971
g1977
g1978
(g1982
S'\xfe\xa9\x18`\xc8:\xe1?'
p2972
tp2973
Rp2974
sg1988
g1978
(g1982
S'\x9c\x99\x1b%\xf7\x0f\xe0?'
p2975
tp2976
Rp2977
sg1992
(lp2978
g1978
(g1982
S'\x11o\x8b\xe0\xc1q\xd7?'
p2979
tp2980
Rp2981
ag1978
(g1982
S'\xe6\x94\x00\x8b1`\xe8?'
p2982
tp2983
Rp2984
asg2000
I8
ssg2126
(dp2985
g2003
g1978
(g1982
S'\x9azQy\xf0\xa6\xd9?'
p2986
tp2987
Rp2988
sg2007
g1978
(g1982
S'\xfex\nz\xe6\tS@'
p2989
tp2990
Rp2991
sg2011
g1978
(g1982
S'cE\x82Y`\\\xdd?'
p2992
tp2993
Rp2994
sg2000
I8
ssg2137
(dp2995
g1977
g1978
(g1982
S'\xf1\xb8v\xc3u\x1e\xe6?'
p2996
tp2997
Rp2998
sg1988
g1978
(g1982
S'\xfa\xc2\xed\x8b\x0e\xe5\xe7?'
p2999
tp3000
Rp3001
sg1992
(lp3002
g1978
(g1982
S'\nt^\x1b\x93Q\xdc?'
p3003
tp3004
Rp3005
ag1978
(g1982
S'\x14\xd8}m\x91\x93\xec?'
p3006
tp3007
Rp3008
asg2000
I19
ssg2152
(dp3009
g2003
g1978
(g1982
S'\xff\x929[\xf7\xff\x87?'
p3010
tp3011
Rp3012
sg2007
g1978
(g1982
S'\x19\xbb\xb4\x95\xf9\xcf\x01@'
p3013
tp3014
Rp3015
sg2011
g1978
(g1982
S'\xff\x929[\xf7\xff\x97?'
p3016
tp3017
Rp3018
sg2000
I8
ssg2163
(dp3019
g2003
g1978
(g1982
S'\xb0\x01\xd1\xaa\xb8o\xec?'
p3020
tp3021
Rp3022
sg2007
g1978
(g1982
S'A\x1f\xc7\x0e\xeb\x1ae@'
p3023
tp3024
Rp3025
sg2011
g1978
(g1982
S'\x8aw\xd3\x07=\x96\xec?'
p3026
tp3027
Rp3028
sg2000
I8
sssg1947
(dp3029
g1975
(dp3030
g1977
g1978
(g1982
S'\xdd\x07\x11\xd8=\r\xe0?'
p3031
tp3032
Rp3033
sg1988
g1978
(g1982
S'\x11\x94\xe4\xf4Fn\xe1?'
p3034
tp3035
Rp3036
sg1992
(lp3037
g1978
(g1982
S'\x84\xea\xbd\x01\xebU\xd2?'
p3038
tp3039
Rp3040
ag1978
(g1982
S'{r\xb5/\xeeD\xe6?'
p3041
tp3042
Rp3043
asg2000
I22
ssg2001
(dp3044
g2003
g1978
(g1982
S'\xe9rV\xe7\xcf\xa9\x99?'
p3045
tp3046
Rp3047
sg2007
g1978
(g1982
S'I)\xb2M\x08\x0c\x13@'
p3048
tp3049
Rp3050
sg2011
g1978
(g1982
S'\xbc\xf7\xeeKEq\xa7?'
p3051
tp3052
Rp3053
sg2000
I8
ssg2015
(dp3054
g1977
g1978
(g1982
S'\xf2\xe8G\xf9\xed\xf6\xe0?'
p3055
tp3056
Rp3057
sg1988
g1978
(g1982
S'\xd4\xe6\x8f\xfa\xb1\x8b\xe1?'
p3058
tp3059
Rp3060
sg1992
(lp3061
g1978
(g1982
S'?\x9b[u\x97\xd9\xd3?'
p3062
tp3063
Rp3064
ag1978
(g1982
S'p\xc5~\xd2\xdd\xb1\xe6?'
p3065
tp3066
Rp3067
asg2000
I8
ssg2030
(dp3068
g2003
g1978
(g1982
S'\x97P((\xc4\xc7\xb7?'
p3069
tp3070
Rp3071
sg2007
g1978
(g1982
S'\xd0\xeb\xcd\x95C\xa61@'
p3072
tp3073
Rp3074
sg2011
g1978
(g1982
S'\xee\x84\x99\xcc\xb3\x12\xc2?'
p3075
tp3076
Rp3077
sg2000
I8
ssg2041
(dp3078
g1977
g1978
(g1982
S'\xe0\xacg>Ia\xd6?'
p3079
tp3080
Rp3081
sg1988
g1978
(g1982
S'E\x02y\x88\xc5\x87\xd5?'
p3082
tp3083
Rp3084
sg1992
(lp3085
g1978
(g1982
S'\x98\xa5YR\x91[\xc0?'
p3086
tp3087
Rp3088
ag1978
(g1982
S'3\xd6\xa80\xbe\xd0\xe3?'
p3089
tp3090
Rp3091
asg2000
I8
ssg2056
(dp3092
g2003
g1978
(g1982
S'*\xb1wo5F\xa2?'
p3093
tp3094
Rp3095
sg2007
g1978
(g1982
S'\xfa\xaauQ7 \x1b@'
p3096
tp3097
Rp3098
sg2011
g1978
(g1982
S'\xceB8\xc2\x03\xba\xae?'
p3099
tp3100
Rp3101
sg2000
I8
ssg2067
(dp3102
g2003
g1978
(g1982
S'DG\x8f8\x1e\xf3\xe2?'
p3103
tp3104
Rp3105
sg2007
g1978
(g1982
S'\xc9\xad\xf4\xdb\xe0 \\@'
p3106
tp3107
Rp3108
sg2011
g1978
(g1982
S'\x15\r\xb1\xa72\xb1\xe4?'
p3109
tp3110
Rp3111
sg2000
I22
ssg2078
(dp3112
g2003
g1978
(g1982
S'@\x1e\xbdz\xb8\xa9\xc4?'
p3113
tp3114
Rp3115
sg2007
g1978
(g1982
S'\xe7\xb80\xd6\xed\xab>@'
p3116
tp3117
Rp3118
sg2011
g1978
(g1982
S'\xa83@\t\xfe\xd7\xcb?'
p3119
tp3120
Rp3121
sg2000
I8
ssg2089
(dp3122
g2003
g1978
(g1982
S'\x1eC\x9e\x16\x0b\x93\xa9?'
p3123
tp3124
Rp3125
sg2007
g1978
(g1982
S'\xd0u\xc9:"\xfb"@'
p3126
tp3127
Rp3128
sg2011
g1978
(g1982
S'"\xf5\xe7q\x13?\xb4?'
p3129
tp3130
Rp3131
sg2000
I8
ssg2100
(dp3132
g2003
g1978
(g1982
S'\xf1\x03f\x15\xbb\x9c\xbf?'
p3133
tp3134
Rp3135
sg2007
g1978
(g1982
S'\xed\xb6\xe1\xd9Rv7@'
p3136
tp3137
Rp3138
sg2011
g1978
(g1982
S'\x9c\xa6\xa3\xc8\x00\x9b\xc5?'
p3139
tp3140
Rp3141
sg2000
I8
ssg2111
(dp3142
g1977
g1978
(g1982
S'\xa4\xe0\xe4\xd6bp\xd8?'
p3143
tp3144
Rp3145
sg1988
g1978
(g1982
S'\xbe2\x1f\xb5\xc7,\xdc?'
p3146
tp3147
Rp3148
sg1992
(lp3149
g1978
(g1982
S'\x06\x0e\x9b\xe5\x89b\xb7?'
p3150
tp3151
Rp3152
ag1978
(g1982
S'u\x06\xaf\xc3\xec\x81\xe2?'
p3153
tp3154
Rp3155
asg2000
I8
ssg2126
(dp3156
g2003
g1978
(g1982
S'\xb0\x01\xd1\xaa\xb8o\xec?'
p3157
tp3158
Rp3159
sg2007
g1978
(g1982
S'A\x1f\xc7\x0e\xeb\x1ae@'
p3160
tp3161
Rp3162
sg2011
g1978
(g1982
S'\xb0P\x97J*\xbd\xec?'
p3163
tp3164
Rp3165
sg2000
I8
ssg2137
(dp3166
g1977
g1978
(g1982
S'i\xe8-G\x05\xf8\xe0?'
p3167
tp3168
Rp3169
sg1988
g1978
(g1982
S'\x8a\xb4\x1d*\x18\x82\xe1?'
p3170
tp3171
Rp3172
sg1992
(lp3173
g1978
(g1982
S's\x88\x1e\xdb\xb7\x1b\xda?'
p3174
tp3175
Rp3176
ag1978
(g1982
S'q0>\xb3\x0bM\xe6?'
p3177
tp3178
Rp3179
asg2000
I22
ssg2152
(dp3180
g2003
g1978
(g1982
S'\xb0\x01\xd1\xaa\xb8o\xec?'
p3181
tp3182
Rp3183
sg2007
g1978
(g1982
S'A\x1f\xc7\x0e\xeb\x1ae@'
p3184
tp3185
Rp3186
sg2011
g1978
(g1982
S'\xb1\x01\xd1\xaa\xb8o\xec?'
p3187
tp3188
Rp3189
sg2000
I8
ssg2163
(dp3190
g2003
g1978
(g1982
S'\xfb\xa3\xbd\x16\x8b\xb4\x91?'
p3191
tp3192
Rp3193
sg2007
g1978
(g1982
S'i\x7f\xc1u\xfeG\n@'
p3194
tp3195
Rp3196
sg2011
g1978
(g1982
S'A\x8bN\x06i\xfd\xa0?'
p3197
tp3198
Rp3199
sg2000
I8
sssg1949
(dp3200
g1975
(dp3201
g1977
g1978
(g1982
S'A\xcc\x00\xfd\xf1\xdc\xe0?'
p3202
tp3203
Rp3204
sg1988
g1978
(g1982
S'\xfd]\xe8\x13\x81>\xe0?'
p3205
tp3206
Rp3207
sg1992
(lp3208
g1978
(g1982
S'\x82M\xf0\xda\x88\x85\xd4?'
p3209
tp3210
Rp3211
ag1978
(g1982
S'}\xd1\\\r\xd6I\xe9?'
p3212
tp3213
Rp3214
asg2000
I39
ssg2001
(dp3215
g2003
g1978
(g1982
S'\xdd\xdc(\xdc\x11A\x7f?'
p3216
tp3217
Rp3218
sg2007
g1978
(g1982
S'\xecSfAK2\xf7?'
p3219
tp3220
Rp3221
sg2011
g1978
(g1982
S']l\xad\xa0/w\x91?'
p3222
tp3223
Rp3224
sg2000
I14
ssg2015
(dp3225
g1977
g1978
(g1982
S'=0\x12\xfdXm\xe8?'
p3226
tp3227
Rp3228
sg1988
g1978
(g1982
S'\xbe\x0eE\x14)$\xe8?'
p3229
tp3230
Rp3231
sg1992
(lp3232
g1978
(g1982
S'8\x85\xa3\xea,N\xe6?'
p3233
tp3234
Rp3235
ag1978
(g1982
S'r\r\xed\xb2\x99\x93\xeb?'
p3236
tp3237
Rp3238
asg2000
I14
ssg2030
(dp3239
g2003
g1978
(g1982
S'\xb7u3\x03\x1f\x12T?'
p3240
tp3241
Rp3242
sg2007
g1978
(g1982
S'\xbcb\xc0\x08\xe6\xca\xcd?'
p3243
tp3244
Rp3245
sg2011
g1978
(g1982
S'\xbcb\xc0\x08\xe6\xcam?'
p3246
tp3247
Rp3248
sg2000
I14
ssg2041
(dp3249
g1977
g1978
(g1982
S';G\xdb\xc0\xe6,\xd4?'
p3250
tp3251
Rp3252
sg1988
g1978
(g1982
S'N\xd8\x13\xe0r\x16\xd0?'
p3253
tp3254
Rp3255
sg1992
(lp3256
g1978
(g1982
S'H\x1e`1\xf9\xd8\xc1?'
p3257
tp3258
Rp3259
ag1978
(g1982
S'\xa0\x1a\xacR\x84\xad\xe3?'
p3260
tp3261
Rp3262
asg2000
I14
ssg2056
(dp3263
g2003
g1978
(g1982
S"\xfbV\xf4'\r\xd7\xb2?"
p3264
tp3265
Rp3266
sg2007
g1978
(g1982
S'\x1d\xb1N\x877\xf7+@'
p3267
tp3268
Rp3269
sg2011
g1978
(g1982
S'\xcb\x95\xbc\xcd(\xde\xbc?'
p3270
tp3271
Rp3272
sg2000
I14
ssg2067
(dp3273
g2003
g1978
(g1982
S'\x93\x197yZ\x84\xc5>'
p3274
tp3275
Rp3276
sg2007
g1978
(g1982
S'\xf6\xc9\xedKv\xf0??'
p3277
tp3278
Rp3279
sg2011
g1978
(g1982
S'\x94I\xf6\x9f\xc7\x08\xf1>'
p3280
tp3281
Rp3282
sg2000
I39
ssg2078
(dp3283
g2003
g1978
(g1982
S'\xf2\x08\xea6s\xe1y?'
p3284
tp3285
Rp3286
sg2007
g1978
(g1982
S'\xa4\xb2\xc1\x82S5\xf3?'
p3287
tp3288
Rp3289
sg2011
g1978
(g1982
S'\xed\xcbl\x87\xd3\xfb\x8d?'
p3290
tp3291
Rp3292
sg2000
I14
ssg2089
(dp3293
g2003
g1978
(g1982
S'\x8fw\x9ej\x06\x03\xbc?'
p3294
tp3295
Rp3296
sg2007
g1978
(g1982
S'\xbc\x9c!\xc3>\xca4@'
p3297
tp3298
Rp3299
sg2011
g1978
(g1982
S'k\xf1\xb8\x88\xef\xdb\xc3?'
p3300
tp3301
Rp3302
sg2000
I14
ssg2100
(dp3303
g2003
g1978
(g1982
S'\xa9g\xc1H\xe0\x14P?'
p3304
tp3305
Rp3306
sg2007
g1978
(g1982
S'\xdf\x15\xff\xeb\xfc\xde\xc7?'
p3307
tp3308
Rp3309
sg2011
g1978
(g1982
S'z\x06\xca\xbd(Wj?'
p3310
tp3311
Rp3312
sg2000
I14
ssg2111
(dp3313
g1977
g1978
(g1982
S'\xfd\x01z\x8b\xac\x8b\xe5?'
p3314
tp3315
Rp3316
sg1988
g1978
(g1982
S'\xd3|\x81U\x91x\xe4?'
p3317
tp3318
Rp3319
sg1992
(lp3320
g1978
(g1982
S'(\xc3\xdd\xfc\xc3\x0f\xdf?'
p3321
tp3322
Rp3323
ag1978
(g1982
S'\xcf\x93\xf0\x12\xd3l\xeb?'
p3324
tp3325
Rp3326
asg2000
I14
ssg2126
(dp3327
g2003
g1978
(g1982
S'\x12\xb0|\xdf\x14\xf5X?'
p3328
tp3329
Rp3330
sg2007
g1978
(g1982
S'\xad\x8a\xde}\xe5\x85\xd2?'
p3331
tp3332
Rp3333
sg2011
g1978
(g1982
S'\xdf;q\x9e\x92\xb1q?'
p3334
tp3335
Rp3336
sg2000
I14
ssg2137
(dp3337
g1977
g1978
(g1982
S'\xdfq?a\xfe\x16\xe7?'
p3338
tp3339
Rp3340
sg1988
g1978
(g1982
S'\xbc\x91\x10C/\x88\xe7?'
p3341
tp3342
Rp3343
sg1992
(lp3344
g1978
(g1982
S'\xba\xcd\xa2|?J\xe2?'
p3345
tp3346
Rp3347
ag1978
(g1982
S'_\xea`\xbf=|\xea?'
p3348
tp3349
Rp3350
asg2000
I39
ssg2152
(dp3351
g2003
g1978
(g1982
S'\xe5\xc7\xc5g0\x15c?'
p3352
tp3353
Rp3354
sg2007
g1978
(g1982
S'\xb8\x94\t\xdasS\xdc?'
p3355
tp3356
Rp3357
sg2011
g1978
(g1982
S'\xd5\xf5WF\x85\x88y?'
p3358
tp3359
Rp3360
sg2000
I14
ssg2163
(dp3361
g2003
g1978
(g1982
S'\xa9g\xc1H\xe0\x14P?'
p3362
tp3363
Rp3364
sg2007
g1978
(g1982
S'\xdf\x15\xff\xeb\xfc\xde\xc7?'
p3365
tp3366
Rp3367
sg2011
g1978
(g1982
S'\xc4\xac\x97\xceu\xcdj?'
p3368
tp3369
Rp3370
sg2000
I14
sssg1951
(dp3371
g1975
(dp3372
g1977
g1978
(g1982
S'\xc6e9\x16\xe4\xfb\xe3?'
p3373
tp3374
Rp3375
sg1988
g1978
(g1982
S'\xfa\x99\xec\xfe}b\xe5?'
p3376
tp3377
Rp3378
sg1992
(lp3379
g1978
(g1982
S'\xf1\xd1[\xdd\xa0\xed\xca?'
p3380
tp3381
Rp3382
ag1978
(g1982
S'L\xdc\x87\xaa\xf4 \xed?'
p3383
tp3384
Rp3385
asg2000
I64
ssg2001
(dp3386
g2003
g1978
(g1982
S'R;$\x12\xe6\x1b\xe9?'
p3387
tp3388
Rp3389
sg2007
g1978
(g1982
S'\x07\xe4v\xc1\xb4\xa2b@'
p3390
tp3391
Rp3392
sg2011
g1978
(g1982
S'\xda\xed\x96M\xc6\x11\xea?'
p3393
tp3394
Rp3395
sg2000
I28
ssg2015
(dp3396
g1977
g1978
(g1982
S'Y\x80\xf1\xf49\xff\xe6?'
p3397
tp3398
Rp3399
sg1988
g1978
(g1982
S'\x08\xdd\xcd\x05\xd2\xbf\xe6?'
p3400
tp3401
Rp3402
sg1992
(lp3403
g1978
(g1982
S'fP\x15{W\xf8\xdc?'
p3404
tp3405
Rp3406
ag1978
(g1982
S'\xf5\xbct\x15&\x9d\xee?'
p3407
tp3408
Rp3409
asg2000
I28
ssg2030
(dp3410
g2003
g1978
(g1982
S'\x86\xe5\x9e\xd85\\\xa8?'
p3411
tp3412
Rp3413
sg2007
g1978
(g1982
S'Y\xee\xc5\xf6o\x14"@'
p3414
tp3415
Rp3416
sg2011
g1978
(g1982
S'\n|-\x85\xad\x9c\xb3?'
p3417
tp3418
Rp3419
sg2000
I28
ssg2041
(dp3420
g1977
g1978
(g1982
S'\x8bkW08\x14\xe5?'
p3421
tp3422
Rp3423
sg1988
g1978
(g1982
S'V\xf9\x80\xfbj+\xe7?'
p3424
tp3425
Rp3426
sg1992
(lp3427
g1978
(g1982
S'\xc2\xf7\xb6\x06$%\xd1?'
p3428
tp3429
Rp3430
ag1978
(g1982
S'\xd2\x0c-\x90G\xe3\xec?'
p3431
tp3432
Rp3433
asg2000
I28
ssg2056
(dp3434
g2003
g1978
(g1982
S'f\xc7\xc3\x14\xdbI\xe0?'
p3435
tp3436
Rp3437
sg2007
g1978
(g1982
S'\xfb\x9b\xd22\xa1-X@'
p3438
tp3439
Rp3440
sg2011
g1978
(g1982
S'cfqSm4\xe2?'
p3441
tp3442
Rp3443
sg2000
I28
ssg2067
(dp3444
g2003
g1978
(g1982
S'rz\xa1`\xf6\xec\x0c?'
p3445
tp3446
Rp3447
sg2007
g1978
(g1982
S'\xe1\xd8\xb7\xdb\xdew\x85?'
p3448
tp3449
Rp3450
sg2011
g1978
(g1982
S'\xb4\xe0_I\xb2,1?'
p3451
tp3452
Rp3453
sg2000
I64
ssg2078
(dp3454
g2003
g1978
(g1982
S',\x1d\xe9\xbc\xc4<\xe1?'
p3455
tp3456
Rp3457
sg2007
g1978
(g1982
S'M\x07j\x084\x96Y@'
p3458
tp3459
Rp3460
sg2011
g1978
(g1982
S'\x99p\x8a\xe2\x91\n\xe3?'
p3461
tp3462
Rp3463
sg2000
I28
ssg2089
(dp3464
g2003
g1978
(g1982
S'\x02\x03E p@\x9f?'
p3465
tp3466
Rp3467
sg2007
g1978
(g1982
S';8\xf37\xd31\x17@'
p3468
tp3469
Rp3470
sg2011
g1978
(g1982
S'\x98\x82\xde\x1bx\xfd\xaa?'
p3471
tp3472
Rp3473
sg2000
I28
ssg2100
(dp3474
g2003
g1978
(g1982
S'\x02\x03E p@\x9f?'
p3475
tp3476
Rp3477
sg2007
g1978
(g1982
S';8\xf37\xd31\x17@'
p3478
tp3479
Rp3480
sg2011
g1978
(g1982
S'\xb7\x12\xac\xc18\xbf\xaa?'
p3481
tp3482
Rp3483
sg2000
I28
ssg2111
(dp3484
g1977
g1978
(g1982
S'\x82Y\x05\xe2(,\xe7?'
p3485
tp3486
Rp3487
sg1988
g1978
(g1982
S'%\xb5\x1a\xdd\xcd\xfe\xe7?'
p3488
tp3489
Rp3490
sg1992
(lp3491
g1978
(g1982
S',\xaaw\xfc\x9e\xca\xdd?'
p3492
tp3493
Rp3494
ag1978
(g1982
S'\x89\xa7~\xfe\x1e\x06\xee?'
p3495
tp3496
Rp3497
asg2000
I28
ssg2126
(dp3498
g2003
g1978
(g1982
S'\x02\x03E p@\x9f?'
p3499
tp3500
Rp3501
sg2007
g1978
(g1982
S';8\xf37\xd31\x17@'
p3502
tp3503
Rp3504
sg2011
g1978
(g1982
S'\x8d\xd2\xcc\xf6\x15\x82\xaa?'
p3505
tp3506
Rp3507
sg2000
I28
ssg2137
(dp3508
g1977
g1978
(g1982
S'+\xb0\xce\x86\x10K\xe6?'
p3509
tp3510
Rp3511
sg1988
g1978
(g1982
S'}@\x12\xca\x08%\xe7?'
p3512
tp3513
Rp3514
sg1992
(lp3515
g1978
(g1982
S'\x04,\x97\x1c0R\xd3?'
p3516
tp3517
Rp3518
ag1978
(g1982
S'\x90\x89(O\xec\x87\xee?'
p3519
tp3520
Rp3521
asg2000
I64
ssg2152
(dp3522
g2003
g1978
(g1982
S'\x18\xb0c>\xf7\xb1\xa4?'
p3523
tp3524
Rp3525
sg2007
g1978
(g1982
S'd\xf9\x9b\x00+\xb8\x1e@'
p3526
tp3527
Rp3528
sg2011
g1978
(g1982
S'\xa1T\xae\xee\xd9\xf2\xb0?'
p3529
tp3530
Rp3531
sg2000
I28
ssg2163
(dp3532
g2003
g1978
(g1982
S'\xb0\xb2\xecjm?\xd4?'
p3533
tp3534
Rp3535
sg2007
g1978
(g1982
S'=Y\xb7j&\x0eN@'
p3536
tp3537
Rp3538
sg2011
g1978
(g1982
S'\x11\x14\xa0\x97\x16\xe5\xd7?'
p3539
tp3540
Rp3541
sg2000
I28
sssg1953
(dp3542
g1975
(dp3543
g1977
g1978
(g1982
S'\xb2\xe5\x8eV\xa9(\xe2?'
p3544
tp3545
Rp3546
sg1988
g1978
(g1982
S'\x0eX\xe1\xc7JB\xe2?'
p3547
tp3548
Rp3549
sg1992
(lp3550
g1978
(g1982
S'<\xb2\xca\xe2\x0f\xe7\xd2?'
p3551
tp3552
Rp3553
ag1978
(g1982
S'\xd2\xc1\xa0<u\x15\xeb?'
p3554
tp3555
Rp3556
asg2000
I53
ssg2001
(dp3557
g2003
g1978
(g1982
S'i\xbb\xab\xe0M^\x7f?'
p3558
tp3559
Rp3560
sg2007
g1978
(g1982
S'\x18u\xbf\xcc\xfdG\xf7?'
p3561
tp3562
Rp3563
sg2011
g1978
(g1982
S'\x8f!;\xaaWS\x91?'
p3564
tp3565
Rp3566
sg2000
I27
ssg2015
(dp3567
g1977
g1978
(g1982
S'\x1fe\nl\x8ai\xe5?'
p3568
tp3569
Rp3570
sg1988
g1978
(g1982
S'\x9f\x05\x1e\x81!\xd7\xe6?'
p3571
tp3572
Rp3573
sg1992
(lp3574
g1978
(g1982
S'\xe6.C\xe6\x18\xd8\xde?'
p3575
tp3576
Rp3577
ag1978
(g1982
S'Z4\xa3\x91\xc6\x94\xe9?'
p3578
tp3579
Rp3580
asg2000
I27
ssg2030
(dp3581
g2003
g1978
(g1982
S'\xb6/\xa0\xbc\x9c5@?'
p3582
tp3583
Rp3584
sg2007
g1978
(g1982
S'\xd2\xc6\xfd\xa7\x94\x0f\xb8?'
p3585
tp3586
Rp3587
sg2011
g1978
(g1982
S'3BT\xf6\xfb\r]?'
p3588
tp3589
Rp3590
sg2000
I27
ssg2041
(dp3591
g1977
g1978
(g1982
S'\xfbp\x01\xd3\x92\xc9\xd8?'
p3592
tp3593
Rp3594
sg1988
g1978
(g1982
S'\xfd\xe9\xa5\x8e\x83_\xda?'
p3595
tp3596
Rp3597
sg1992
(lp3598
g1978
(g1982
S'F\xa7Z\xfd~r\xb1?'
p3599
tp3600
Rp3601
ag1978
(g1982
S'NH\x13\xc4E\x1d\xe7?'
p3602
tp3603
Rp3604
asg2000
I27
ssg2056
(dp3605
g2003
g1978
(g1982
S'xWsK\x00\xbc\x9b?'
p3606
tp3607
Rp3608
sg2007
g1978
(g1982
S'\xeb\x9a\xff7\x88\x95\x14@'
p3609
tp3610
Rp3611
sg2011
g1978
(g1982
S'\x17\x9ene5\xdb\xa8?'
p3612
tp3613
Rp3614
sg2000
I27
ssg2067
(dp3615
g2003
g1978
(g1982
S'\x8f\x1f\xf0\t\x81z\xad?'
p3616
tp3617
Rp3618
sg2007
g1978
(g1982
S'l7`\xc5\xeb\xe0%@'
p3619
tp3620
Rp3621
sg2011
g1978
(g1982
S'\xfa@\xa5\xf2\xf0$\xb7?'
p3622
tp3623
Rp3624
sg2000
I53
ssg2078
(dp3625
g2003
g1978
(g1982
S'q\xe4_.-N]?'
p3626
tp3627
Rp3628
sg2007
g1978
(g1982
S'\x8c+k\x88\x05\xc0\xd5?'
p3629
tp3630
Rp3631
sg2011
g1978
(g1982
S'\xde\n\x92\xad}xt?'
p3632
tp3633
Rp3634
sg2000
I27
ssg2089
(dp3635
g2003
g1978
(g1982
S'D\x80_\xbck\x1f\xeb?'
p3636
tp3637
Rp3638
sg2007
g1978
(g1982
S'2\xe1\xce\xf5Q!d@'
p3639
tp3640
Rp3641
sg2011
g1978
(g1982
S'\xd9\xd2t\xe1\xbd\xb4\xeb?'
p3642
tp3643
Rp3644
sg2000
I27
ssg2100
(dp3645
g2003
g1978
(g1982
S'\xc4q\x80\xbc\x95;%?'
p3646
tp3647
Rp3648
sg2007
g1978
(g1982
S'\xdf\xa8\xceCr\x84\x9f?'
p3649
tp3650
Rp3651
sg2011
g1978
(g1982
S'2?2\xd5\x8fiF?'
p3652
tp3653
Rp3654
sg2000
I27
ssg2111
(dp3655
g1977
g1978
(g1982
S'S\xaf\x11\x1b-\xe5\xe1?'
p3656
tp3657
Rp3658
sg1988
g1978
(g1982
S'\x83t\xabdU|\xe1?'
p3659
tp3660
Rp3661
sg1992
(lp3662
g1978
(g1982
S'\t\xbc0\xc7\x9f\xa7\xd4?'
p3663
tp3664
Rp3665
ag1978
(g1982
S'\xcc\x17U\x8b\xaf\x12\xe9?'
p3666
tp3667
Rp3668
asg2000
I27
ssg2126
(dp3669
g2003
g1978
(g1982
S'\x87\xa2JnIF\x86?'
p3670
tp3671
Rp3672
sg2007
g1978
(g1982
S'\xa0d\xdb\x7f*\x88\x00@'
p3673
tp3674
Rp3675
sg2011
g1978
(g1982
S'\xcc1\x89\xee\xb5\xc6\x97?'
p3676
tp3677
Rp3678
sg2000
I27
ssg2137
(dp3679
g1977
g1978
(g1982
S'\x86\xbef\x05\x81\xe5\xe3?'
p3680
tp3681
Rp3682
sg1988
g1978
(g1982
S'i`\xa9\xd7\xa7\xa5\xe4?'
p3683
tp3684
Rp3685
sg1992
(lp3686
g1978
(g1982
S'\t\xcf{2\xe7\xc0\xd6?'
p3687
tp3688
Rp3689
ag1978
(g1982
S'\x93\xa8i\xb6?\x9e\xe9?'
p3690
tp3691
Rp3692
asg2000
I53
ssg2152
(dp3693
g2003
g1978
(g1982
S'\xae\xa3d\xad+\x98\x95?'
p3694
tp3695
Rp3696
sg2007
g1978
(g1982
S'{\xb1\xb0j\xf0\x06\x10@'
p3697
tp3698
Rp3699
sg2011
g1978
(g1982
S'c\x89\xabN\xc9\x1c\xa4?'
p3700
tp3701
Rp3702
sg2000
I27
ssg2163
(dp3703
g2003
g1978
(g1982
S'\xcc\x1f\xdb\x89\x84\xe9\xf3>'
p3704
tp3705
Rp3706
sg2007
g1978
(g1982
S'3C\xa1\xbc\xa0\x8em?'
p3707
tp3708
Rp3709
sg2011
g1978
(g1982
S'\xc7x\xfa\xe2\x83@\x18?'
p3710
tp3711
Rp3712
sg2000
I27
sssg1955
(dp3713
g1975
(dp3714
g1977
g1978
(g1982
S' \xfd\xe6!\x91\xce\xe0?'
p3715
tp3716
Rp3717
sg1988
g1978
(g1982
S'\xc4|V\xf2\x8f0\xe1?'
p3718
tp3719
Rp3720
sg1992
(lp3721
g1978
(g1982
S'\xb0`\x86\x138\x17\xd3?'
p3722
tp3723
Rp3724
ag1978
(g1982
S'\x98p\x17^3\xa2\xe6?'
p3725
tp3726
Rp3727
asg2000
I37
ssg2001
(dp3728
g2003
g1978
(g1982
S'1\xed\xdf\xcc&pu?'
p3729
tp3730
Rp3731
sg2007
g1978
(g1982
S'\x15d\x1c\x98y\xd2\xef?'
p3732
tp3733
Rp3734
sg2011
g1978
(g1982
S'\xaa\xe9I\x13.u\x89?'
p3735
tp3736
Rp3737
sg2000
I16
ssg2015
(dp3738
g1977
g1978
(g1982
S'\xf8INwP\xb7\xe4?'
p3739
tp3740
Rp3741
sg1988
g1978
(g1982
S'\xe8\xeb%\x85S"\xe5?'
p3742
tp3743
Rp3744
sg1992
(lp3745
g1978
(g1982
S'6Q\xe9\xbd\xd4K\xdc?'
p3746
tp3747
Rp3748
ag1978
(g1982
S'\xadw\x89\xdd j\xeb?'
p3749
tp3750
Rp3751
asg2000
I17
ssg2030
(dp3752
g2003
g1978
(g1982
S'y\xaa\xb5\xf8.0\x87?'
p3753
tp3754
Rp3755
sg2007
g1978
(g1982
S'\x86\xd4\x96\xdc\xc25\x01@'
p3756
tp3757
Rp3758
sg2011
g1978
(g1982
S'G\x891\xb1\xf8y\x98?'
p3759
tp3760
Rp3761
sg2000
I17
ssg2041
(dp3762
g1977
g1978
(g1982
S"\xa9'\xdb\xd8\x1e\x05\xd8?"
p3763
tp3764
Rp3765
sg1988
g1978
(g1982
S'\xbc\xc3\xe7E\xa8=\xda?'
p3766
tp3767
Rp3768
sg1992
(lp3769
g1978
(g1982
S'\x9c\x9b\x97[\xa4\x94\xa7?'
p3770
tp3771
Rp3772
ag1978
(g1982
S'co\x1c\xe5\xa6\xad\xe6?'
p3773
tp3774
Rp3775
asg2000
I17
ssg2056
(dp3776
g2003
g1978
(g1982
S'\x06\x99%4(d\xa6?'
p3777
tp3778
Rp3779
sg2007
g1978
(g1982
S'\x92\xe7\xb3\xd6U\x9e @'
p3780
tp3781
Rp3782
sg2011
g1978
(g1982
S'\\C\xe1\xc7P.\xb2?'
p3783
tp3784
Rp3785
sg2000
I16
ssg2067
(dp3786
g2003
g1978
(g1982
S'\x05s\x1e\xb6\xeaP\xbe?'
p3787
tp3788
Rp3789
sg2007
g1978
(g1982
S'^\x99*3\x0e\x806@'
p3790
tp3791
Rp3792
sg2011
g1978
(g1982
S'\x1c\x10:\xff\xa8\xde\xc4?'
p3793
tp3794
Rp3795
sg2000
I37
ssg2078
(dp3796
g2003
g1978
(g1982
S'\x9d)\xc4\x91\xc5\xa0\x81?'
p3797
tp3798
Rp3799
sg2007
g1978
(g1982
S'\xc5-_D\xa5*\xfa?'
p3800
tp3801
Rp3802
sg2011
g1978
(g1982
S'\xbe\xf2-\x03\xbe\x07\x93?'
p3803
tp3804
Rp3805
sg2000
I17
ssg2089
(dp3806
g2003
g1978
(g1982
S'\xf8[\xf5+\xf3\x05\xde?'
p3807
tp3808
Rp3809
sg2007
g1978
(g1982
S'B\x1a\xa0zjHV@'
p3810
tp3811
Rp3812
sg2011
g1978
(g1982
S'2\x00\xc5\x1e\x81\xe0\xe0?'
p3813
tp3814
Rp3815
sg2000
I16
ssg2100
(dp3816
g2003
g1978
(g1982
S'\x12\xad\x06\xdae|m?'
p3817
tp3818
Rp3819
sg2007
g1978
(g1982
S's\xf4\xd0\x97S\xe2\xe5?'
p3820
tp3821
Rp3822
sg2011
g1978
(g1982
S'\xbd\xb7\xb4`A\xed\x82?'
p3823
tp3824
Rp3825
sg2000
I17
ssg2111
(dp3826
g1977
g1978
(g1982
S'e\xe9#\xf5\xef\xc3\xdd?'
p3827
tp3828
Rp3829
sg1988
g1978
(g1982
S'=\xd6\xfb\x84Df\xe1?'
p3830
tp3831
Rp3832
sg1992
(lp3833
g1978
(g1982
S'\x00\x00\x00\x00\x00\x00\x00\x00'
p3834
tp3835
Rp3836
ag1978
(g1982
S'\x83\xb1n^/\xd7\xe8?'
p3837
tp3838
Rp3839
asg2000
I16
ssg2126
(dp3840
g2003
g1978
(g1982
S'Z\x11E\xf5\xa4\x07\xdc?'
p3841
tp3842
Rp3843
sg2007
g1978
(g1982
S'\xe1B\tn\xac\xcdT@'
p3844
tp3845
Rp3846
sg2011
g1978
(g1982
S'\x92\xae\xc7!\xe8\xe3\xdf?'
p3847
tp3848
Rp3849
sg2000
I16
ssg2137
(dp3850
g1977
g1978
(g1982
S'\x84G\x19\xb8f~\xe2?'
p3851
tp3852
Rp3853
sg1988
g1978
(g1982
S'\xea4\xca\x9f\x9a\xbc\xe1?'
p3854
tp3855
Rp3856
sg1992
(lp3857
g1978
(g1982
S'|\xcez\xf4\xea\x87\xd4?'
p3858
tp3859
Rp3860
ag1978
(g1982
S'\xf2\xc4+\xe3\x94\x00\xea?'
p3861
tp3862
Rp3863
asg2000
I37
ssg2152
(dp3864
g2003
g1978
(g1982
S'&\x8f\x08\x02%!\x99?'
p3865
tp3866
Rp3867
sg2007
g1978
(g1982
S'>Z\x82w\x99\xa6\x12@'
p3868
tp3869
Rp3870
sg2011
g1978
(g1982
S'U\xfb\xf8\x9b{-\xa7?'
p3871
tp3872
Rp3873
sg2000
I17
ssg2163
(dp3874
g2003
g1978
(g1982
S'\xba\x02<\xd7b\xe2V?'
p3875
tp3876
Rp3877
sg2007
g1978
(g1982
S'\x06\x8a\xbe[\x05\xfc\xd0?'
p3878
tp3879
Rp3880
sg2011
g1978
(g1982
S'\xf6\x01\xb1ACxp?'
p3881
tp3882
Rp3883
sg2000
I17
sssg1957
(dp3884
g1975
(dp3885
g1977
g1978
(g1982
S'h\x1e,$\xa8\xcc\xe0?'
p3886
tp3887
Rp3888
sg1988
g1978
(g1982
S'\\\x90\xdd\xfe\x85\x9a\xdf?'
p3889
tp3890
Rp3891
sg1992
(lp3892
g1978
(g1982
S'\xb2\xcb\x92\xbbi\xfc\xcc?'
p3893
tp3894
Rp3895
ag1978
(g1982
S'j\xb0\x82\xd6\x9a\x17\xe9?'
p3896
tp3897
Rp3898
asg2000
I29
ssg2001
(dp3899
g2003
g1978
(g1982
S'\xb3\xf4i`\x1cN|?'
p3900
tp3901
Rp3902
sg2007
g1978
(g1982
S'\x9d\xa3\x8e\x0f\xf9\x01\xf5?'
p3903
tp3904
Rp3905
sg2011
g1978
(g1982
S'\n\x95\xe6\xce\x80\x01\x90?'
p3906
tp3907
Rp3908
sg2000
I10
ssg2015
(dp3909
g1977
g1978
(g1982
S'\xc5\xd3\x99\xae0\x11\xe6?'
p3910
tp3911
Rp3912
sg1988
g1978
(g1982
S'\x8c\x9cP\x1ce\xd2\xe6?'
p3913
tp3914
Rp3915
sg1992
(lp3916
g1978
(g1982
S'\x8a\\\x1f\x01\xe6_\xd8?'
p3917
tp3918
Rp3919
ag1978
(g1982
S'\xc0\xf2\x81Q\xa1D\xed?'
p3920
tp3921
Rp3922
asg2000
I10
ssg2030
(dp3923
g2003
g1978
(g1982
S' \xbd\x02,Q\xd8\xc1?'
p3924
tp3925
Rp3926
sg2007
g1978
(g1982
S'\xbc\x10T}\x18}:@'
p3927
tp3928
Rp3929
sg2011
g1978
(g1982
S'\x1a\xdcL\xe0\xdb7\xc8?'
p3930
tp3931
Rp3932
sg2000
I10
ssg2041
(dp3933
g1977
g1978
(g1982
S'\xa58\n\xb9\xa2\xb4\xe0?'
p3934
tp3935
Rp3936
sg1988
g1978
(g1982
S'7\x93E\x10\x11I\xe2?'
p3937
tp3938
Rp3939
sg1992
(lp3940
g1978
(g1982
S'\x11\xcf\xb9M"\x81\xc1?'
p3941
tp3942
Rp3943
ag1978
(g1982
S"t\x13'\xbf\x85H\xea?"
p3944
tp3945
Rp3946
asg2000
I10
ssg2056
(dp3947
g2003
g1978
(g1982
S'\xb3\xf4i`\x1cN|?'
p3948
tp3949
Rp3950
sg2007
g1978
(g1982
S'\x9d\xa3\x8e\x0f\xf9\x01\xf5?'
p3951
tp3952
Rp3953
sg2011
g1978
(g1982
S'\xa4F\xe6\xe3\xde2\x90?'
p3954
tp3955
Rp3956
sg2000
I10
ssg2067
(dp3957
g2003
g1978
(g1982
S'\x89\xa3\xf4+b\x82\xa8?'
p3958
tp3959
Rp3960
sg2007
g1978
(g1982
S'`\x91\x9f\xdc\xc40"@'
p3961
tp3962
Rp3963
sg2011
g1978
(g1982
S'\xfe\x16\xb2+\xf6\x90\xb3?'
p3964
tp3965
Rp3966
sg2000
I29
ssg2078
(dp3967
g2003
g1978
(g1982
S'\xf0\x90\x92\xf9\xd3\xc4\xa2?'
p3968
tp3969
Rp3970
sg2007
g1978
(g1982
S'$\x8fu\xa6*\xdc\x1b@'
p3971
tp3972
Rp3973
sg2011
g1978
(g1982
S':\x9cI\xf5\x0bH\xaf?'
p3974
tp3975
Rp3976
sg2000
I10
ssg2089
(dp3977
g2003
g1978
(g1982
S'NN6\xdf\xb2\x14\xe7?'
p3978
tp3979
Rp3980
sg2007
g1978
(g1982
S'\x1eN\xaa\xc1\\!a@'
p3981
tp3982
Rp3983
sg2011
g1978
(g1982
S'\xb5\xe6\xdf\\\x80:\xe8?'
p3984
tp3985
Rp3986
sg2000
I10
ssg2100
(dp3987
g2003
g1978
(g1982
S'\xf0\x90\x92\xf9\xd3\xc4\xa2?'
p3988
tp3989
Rp3990
sg2007
g1978
(g1982
S'$\x8fu\xa6*\xdc\x1b@'
p3991
tp3992
Rp3993
sg2011
g1978
(g1982
S'\x97\xfa\x8dYi\x02\xaf?'
p3994
tp3995
Rp3996
sg2000
I10
ssg2111
(dp3997
g1977
g1978
(g1982
S'\xbe\x87+e\xae\xa3\xdd?'
p3998
tp3999
Rp4000
sg1988
g1978
(g1982
S'\x95\xd0\x9b\x0c\x98\xd4\xe0?'
p4001
tp4002
Rp4003
sg1992
(lp4004
g1978
(g1982
S'\x00\x00\x00\x00\x00\x00\x00\x00'
p4005
tp4006
Rp4007
ag1978
(g1982
S'\xb6\x12?\xe0\x82\x10\xe9?'
p4008
tp4009
Rp4010
asg2000
I10
ssg2126
(dp4011
g2003
g1978
(g1982
S'\xfc\xc0\xc9\xcdJ5\xd2?'
p4012
tp4013
Rp4014
sg2007
g1978
(g1982
S'vzw\t\x1b\x07K@'
p4015
tp4016
Rp4017
sg2011
g1978
(g1982
S'\\\xbeY\xfc\x18\xc2\xd5?'
p4018
tp4019
Rp4020
sg2000
I10
ssg2137
(dp4021
g1977
g1978
(g1982
S'tk\xd30\xdb\xf7\xe2?'
p4022
tp4023
Rp4024
sg1988
g1978
(g1982
S'\xcd\xbc?\x8b\x11\xcc\xe3?'
p4025
tp4026
Rp4027
sg1992
(lp4028
g1978
(g1982
S'2\xaf\xe6\xb0u:\xd6?'
p4029
tp4030
Rp4031
ag1978
(g1982
S"'Ei\xf5\x9f\xd3\xea?"
p4032
tp4033
Rp4034
asg2000
I29
ssg2152
(dp4035
g2003
g1978
(g1982
S'\x98\xc6$yO\x19\x9d?'
p4036
tp4037
Rp4038
sg2007
g1978
(g1982
S'eK\xe9\xfb\xc8\x98\x15@'
p4039
tp4040
Rp4041
sg2011
g1978
(g1982
S'\x81\r\xf8Y\xa2\x98\xa9?'
p4042
tp4043
Rp4044
sg2000
I10
ssg2163
(dp4045
g2003
g1978
(g1982
S'(\x12\xbe\x1a\xc4T\xcb?'
p4046
tp4047
Rp4048
sg2007
g1978
(g1982
S'z\x11\xd9\x8b\xe9HD@'
p4049
tp4050
Rp4051
sg2011
g1978
(g1982
S'&\x1f\xa7\xd4/\xdc\xd0?'
p4052
tp4053
Rp4054
sg2000
I10
sssg1959
(dp4055
g1975
(dp4056
g1977
g1978
(g1982
S'\xb9\xa1\x16\x9c\xeb\x95\xe0?'
p4057
tp4058
Rp4059
sg1988
g1978
(g1982
S'\x7f\x9f\xdc\x04\x07:\xe1?'
p4060
tp4061
Rp4062
sg1992
(lp4063
g1978
(g1982
S'\x8eyb\x87\x83\xf6\xd0?'
p4064
tp4065
Rp4066
ag1978
(g1982
S'\x9du\x7f\xcbQ\x13\xe9?'
p4067
tp4068
Rp4069
asg2000
I362
ssg2001
(dp4070
g2003
g1978
(g1982
S'{\xfb.\xcc,`\xb6<'
p4071
tp4072
Rp4073
sg2007
g1978
(g1982
S'\xa5\xde\x8a?a\x9b0='
p4074
tp4075
Rp4076
sg2011
g1978
(g1982
S'1~\x0e\xaa\x81$\xf6<'
p4077
tp4078
Rp4079
sg2000
I143
ssg2015
(dp4080
g1977
g1978
(g1982
S'\xee\x97\x0cn\x98\xc7\xe4?'
p4081
tp4082
Rp4083
sg1988
g1978
(g1982
S'\x0ez\x9d{\xbb\xc3\xe5?'
p4084
tp4085
Rp4086
sg1992
(lp4087
g1978
(g1982
S'\\zy\x06\xe7L\xdb?'
p4088
tp4089
Rp4090
ag1978
(g1982
S'Nf34e\xaa\xea?'
p4091
tp4092
Rp4093
asg2000
I144
ssg2030
(dp4094
g2003
g1978
(g1982
S'\xf4\x99v\xb1\x8a\n]<'
p4095
tp4096
Rp4097
sg2007
g1978
(g1982
S'C\x06\xb6\xef\xd2\x8d\xd5<'
p4098
tp4099
Rp4100
sg2011
g1978
(g1982
S'3f\x94\xff\xecY\x9f<'
p4101
tp4102
Rp4103
sg2000
I144
ssg2041
(dp4104
g1977
g1978
(g1982
S'v\xdbr\xa5\xd0\x0c\xd6?'
p4105
tp4106
Rp4107
sg1988
g1978
(g1982
S'\x08\xc1Lp\xa1\xdd\xd4?'
p4108
tp4109
Rp4110
sg1992
(lp4111
g1978
(g1982
S'i\xfd\xfe3\x14v\xb1?'
p4112
tp4113
Rp4114
ag1978
(g1982
S'\x91\x91\x11jn\xfb\xe5?'
p4115
tp4116
Rp4117
asg2000
I144
ssg2056
(dp4118
g2003
g1978
(g1982
S'\xbc.\xd6\x92\xed{\x0b>'
p4119
tp4120
Rp4121
sg2007
g1978
(g1982
S'\xb0\xf6\xfaR\xfae\x84>'
p4122
tp4123
Rp4124
sg2011
g1978
(g1982
S'\x17~>\xa7\x9a\xab=>'
p4125
tp4126
Rp4127
sg2000
I143
ssg2067
(dp4128
g2003
g1978
(g1982
S'\xb1\x82A\x05\xa0g\x1c<'
p4129
tp4130
Rp4131
sg2007
g1978
(g1982
S'\xff\x9e\xe6\xc3\xe8\x14\x95<'
p4132
tp4133
Rp4134
sg2011
g1978
(g1982
S'\x99\xe5\x1e\x03\x87\xdd`<'
p4135
tp4136
Rp4137
sg2000
I362
ssg2078
(dp4138
g2003
g1978
(g1982
S'\xbd(\x80\xf5Ey;='
p4139
tp4140
Rp4141
sg2007
g1978
(g1982
S'<\x1e5\xec\x01d\xb4='
p4142
tp4143
Rp4144
sg2011
g1978
(g1982
S'<\x1e5\xec\x01dt='
p4145
tp4146
Rp4147
sg2000
I144
ssg2089
(dp4148
g2003
g1978
(g1982
S'l\xea^-\x1aY\xe4?'
p4149
tp4150
Rp4151
sg2007
g1978
(g1982
S'\xf8\xe3X\xdbB4^@'
p4152
tp4153
Rp4154
sg2011
g1978
(g1982
S'U0\xe4/\x7fz\xe5?'
p4155
tp4156
Rp4157
sg2000
I143
ssg2100
(dp4158
g2003
g1978
(g1982
S'\x0f\x87\xca\xcd\xc4Y\xe7;'
p4159
tp4160
Rp4161
sg2007
g1978
(g1982
S'=P\xbc\x10\xa0Ta<'
p4162
tp4163
Rp4164
sg2011
g1978
(g1982
S'\xfb\xe3\x15sU\xcf.<'
p4165
tp4166
Rp4167
sg2000
I144
ssg2111
(dp4168
g1977
g1978
(g1982
S'\xc5\xad#P:X\xe0?'
p4169
tp4170
Rp4171
sg1988
g1978
(g1982
S"'\xb2\xb9\x02\xa9p\xe1?"
p4172
tp4173
Rp4174
sg1992
(lp4175
g1978
(g1982
S'\x00\x00\x00\x00\x00\x00\x00\x00'
p4176
tp4177
Rp4178
ag1978
(g1982
S'l\xf7\x8b}\xa7\x98\xe9?'
p4179
tp4180
Rp4181
asg2000
I143
ssg2126
(dp4182
g2003
g1978
(g1982
S'r\x99VF\xf6\x9dZ>'
p4183
tp4184
Rp4185
sg2007
g1978
(g1982
S'\xe3E4\xc8<\xc1\xd3>'
p4186
tp4187
Rp4188
sg2011
g1978
(g1982
S's\x1ej\x0b(|\x8b>'
p4189
tp4190
Rp4191
sg2000
I143
ssg2137
(dp4192
g1977
g1978
(g1982
S'j\\\xc1\x9e\x00\xc0\xe3?'
p4193
tp4194
Rp4195
sg1988
g1978
(g1982
S'\x9e\xb8G\x91\x80\\\xe4?'
p4196
tp4197
Rp4198
sg1992
(lp4199
g1978
(g1982
S'&\xeb\xdd\xde\x12\xf8\xd6?'
p4200
tp4201
Rp4202
ag1978
(g1982
S'L?\xe2\x84/\x83\xea?'
p4203
tp4204
Rp4205
asg2000
I362
ssg2152
(dp4206
g2003
g1978
(g1982
S'Mu\xe5y\x0c\xday='
p4207
tp4208
Rp4209
sg2007
g1978
(g1982
S'\x0fMxB\xd5/\xf3='
p4210
tp4211
Rp4212
sg2011
g1978
(g1982
S'\x7fD\xc0\xe5\x12\x0e\xb1='
p4213
tp4214
Rp4215
sg2000
I144
ssg2163
(dp4216
g2003
g1978
(g1982
S'g\xed\x95\xa9\xa7\x96\x98;'
p4217
tp4218
Rp4219
sg2007
g1978
(g1982
S'2F\xddo\xd0?\x12<'
p4220
tp4221
Rp4222
sg2011
g1978
(g1982
S'\x98]|\xea\x15U\xe8;'
p4223
tp4224
Rp4225
sg2000
I144
sssg1961
(dp4226
g1975
(dp4227
g1977
g1978
(g1982
S'\xc6 Z\xe9\x06B\xea?'
p4228
tp4229
Rp4230
sg1988
g1978
(g1982
S'?M\x1a\x82\xd6\xa3\xec?'
p4231
tp4232
Rp4233
sg1992
(lp4234
g1978
(g1982
S'\x14g\x97\x18\xd5\x8e\xd9?'
p4235
tp4236
Rp4237
ag1978
(g1982
S'2,\xec\xec\xd2\x88\xef?'
p4238
tp4239
Rp4240
asg2000
I53
ssg2001
(dp4241
g2003
g1978
(g1982
S't+j\xc2&\xcf\xc4?'
p4242
tp4243
Rp4244
sg2007
g1978
(g1982
S'\x80\x98\x95\x88}\xe3>@'
p4245
tp4246
Rp4247
sg2011
g1978
(g1982
S'\xb4\xa2\x7f\xee\xe0\xd7\xcb?'
p4248
tp4249
Rp4250
sg2000
I17
ssg2015
(dp4251
g1977
g1978
(g1982
S'\xc5\x0c##E[\xec?'
p4252
tp4253
Rp4254
sg1988
g1978
(g1982
S'\xdc\x16\x1e\xbb\xa8=\xee?'
p4255
tp4256
Rp4257
sg1992
(lp4258
g1978
(g1982
S'&\xd4\xd1\xcb\xb4\xdc\xe1?'
p4259
tp4260
Rp4261
ag1978
(g1982
S'\xb2M\xab\x85\x80G\xef?'
p4262
tp4263
Rp4264
asg2000
I17
ssg2030
(dp4265
g2003
g1978
(g1982
S'\xfbV\x01\x1e\xc7\xa1C?'
p4266
tp4267
Rp4268
sg2007
g1978
(g1982
S'\x1d\xfd\x89\x90#$\xbd?'
p4269
tp4270
Rp4271
sg2011
g1978
(g1982
S'M\x85u\xc8q\xf4`?'
p4272
tp4273
Rp4274
sg2000
I17
ssg2041
(dp4275
g1977
g1978
(g1982
S'\x10\xf9@oR \xe9?'
p4276
tp4277
Rp4278
sg1988
g1978
(g1982
S'\xdcg\x87\xa3\xf0&\xea?'
p4279
tp4280
Rp4281
sg1992
(lp4282
g1978
(g1982
S'\x12\xb2\x05\xa2\xc0\n\xe0?'
p4283
tp4284
Rp4285
ag1978
(g1982
S'_\xe6\x9f;\xea\x10\xee?'
p4286
tp4287
Rp4288
asg2000
I17
ssg2056
(dp4289
g2003
g1978
(g1982
S'0\x1e|\xe4\xf5\x1a\xcd?'
p4290
tp4291
Rp4292
sg2007
g1978
(g1982
S'h\x1e\x94\x7f\x02\x9aE@'
p4293
tp4294
Rp4295
sg2011
g1978
(g1982
S'\r\xbd\xc1\xa3q\xb9\xd1?'
p4296
tp4297
Rp4298
sg2000
I17
ssg2067
(dp4299
g2003
g1978
(g1982
S"\x87'\xcf\x901f\xb2>"
p4300
tp4301
Rp4302
sg2007
g1978
(g1982
S'\xac~\xf3\x92\xb1O+?'
p4303
tp4304
Rp4305
sg2011
g1978
(g1982
S'\xa5a3\xa9\x94\xce\xe0>'
p4306
tp4307
Rp4308
sg2000
I53
ssg2078
(dp4309
g2003
g1978
(g1982
S'y\xaa\xb5\xf8.0\x87?'
p4310
tp4311
Rp4312
sg2007
g1978
(g1982
S'\x86\xd4\x96\xdc\xc25\x01@'
p4313
tp4314
Rp4315
sg2011
g1978
(g1982
S'v\x9b\tX\x1d5\x98?'
p4316
tp4317
Rp4318
sg2000
I17
ssg2089
(dp4319
g2003
g1978
(g1982
S'\x90_\xe0\x14E\x05\xd1?'
p4320
tp4321
Rp4322
sg2007
g1978
(g1982
S'\xda\r\xfd\x8a\xd2CI@'
p4323
tp4324
Rp4325
sg2011
g1978
(g1982
S'\x0b\x9d\xfd?\xc1w\xd4?'
p4326
tp4327
Rp4328
sg2000
I17
ssg2100
(dp4329
g2003
g1978
(g1982
S'\xa5\x06H\xc1\xf2\x02w?'
p4330
tp4331
Rp4332
sg2007
g1978
(g1982
S'\xeets+0\x14\xf1?'
p4333
tp4334
Rp4335
sg2011
g1978
(g1982
S'\x8e*\x9d\x08#\xfd\x8a?'
p4336
tp4337
Rp4338
sg2000
I17
ssg2111
(dp4339
g1977
g1978
(g1982
S't5m\xdc\xab\xfc\xec?'
p4340
tp4341
Rp4342
sg1988
g1978
(g1982
S'\x8dc\xd6\xecB\r\xef?'
p4343
tp4344
Rp4345
sg1992
(lp4346
g1978
(g1982
S'.<\xc7\xdd\xfb(\xe3?'
p4347
tp4348
Rp4349
ag1978
(g1982
S'\x86\xd7\x1c\xda3\xca\xef?'
p4350
tp4351
Rp4352
asg2000
I17
ssg2126
(dp4353
g2003
g1978
(g1982
S':\x9e\x0f\x97\xddfS?'
p4354
tp4355
Rp4356
sg2007
g1978
(g1982
S'\xde.;\xec\xb0\xcc\xcc?'
p4357
tp4358
Rp4359
sg2011
g1978
(g1982
S"'\xd2h\xcb\xb7Am?"
p4360
tp4361
Rp4362
sg2000
I17
ssg2137
(dp4363
g1977
g1978
(g1982
S'\xed=L\x07\xd0\xfd\xeb?'
p4364
tp4365
Rp4366
sg1988
g1978
(g1982
S'\xea\x17\xb9X\xdf\xba\xee?'
p4367
tp4368
Rp4369
sg1992
(lp4370
g1978
(g1982
S'~\x15\x13\xb2\xa6\x96\xda?'
p4371
tp4372
Rp4373
ag1978
(g1982
S'\x8b3\xdb\x801\x9f\xef?'
p4374
tp4375
Rp4376
asg2000
I53
ssg2152
(dp4377
g2003
g1978
(g1982
S'hH\x83\xdd\x17\x9a\xea?'
p4378
tp4379
Rp4380
sg2007
g1978
(g1982
S'\xbdog\xb6]\xbec@'
p4381
tp4382
Rp4383
sg2011
g1978
(g1982
S'\x18\x0c\x1fY&R\xeb?'
p4384
tp4385
Rp4386
sg2000
I17
ssg2163
(dp4387
g2003
g1978
(g1982
S'\x91\xe4<\xd8]x@?'
p4388
tp4389
Rp4390
sg2007
g1978
(g1982
S'Gc\xfaL\xabr\xb8?'
p4391
tp4392
Rp4393
sg2011
g1978
(g1982
S'AF\x1f\x94\xae\xf9\\?'
p4394
tp4395
Rp4396
sg2000
I17
sssg1963
(dp4397
g1975
(dp4398
g1977
g1978
(g1982
S'm\x18\xaf\xb0\xaa\xfc\xe8?'
p4399
tp4400
Rp4401
sg1988
g1978
(g1982
S'\x1e \xb2\x1bJ\x9c\xe9?'
p4402
tp4403
Rp4404
sg1992
(lp4405
g1978
(g1982
S'_\xb7O\xe6\x1dx\xe3?'
p4406
tp4407
Rp4408
ag1978
(g1982
S"\xac'D\xb7V\x8a\xed?"
p4409
tp4410
Rp4411
asg2000
I15
ssg2001
(dp4412
g2003
g1978
(g1982
S'\xd3`\xc6\xa1#{\x7f?'
p4413
tp4414
Rp4415
sg2007
g1978
(g1982
S'\xdd;\x11rd]\xf7?'
p4416
tp4417
Rp4418
sg2011
g1978
(g1982
S'\xb7o\x7f\xcf\x1a0\x91?'
p4419
tp4420
Rp4421
sg2000
I9
ssg2015
(dp4422
g1977
g1978
(g1982
S'\xd4\t\xc6\x1f\xc8L\xea?'
p4423
tp4424
Rp4425
sg1988
g1978
(g1982
S'\x05\x12)H\xe2^\xec?'
p4426
tp4427
Rp4428
sg1992
(lp4429
g1978
(g1982
S'F\xea\x956#\xdb\xe1?'
p4430
tp4431
Rp4432
ag1978
(g1982
S'\x95\x1d\xfd\xe3\xdc\xf9\xed?'
p4433
tp4434
Rp4435
asg2000
I9
ssg2030
(dp4436
g2003
g1978
(g1982
S'\x1a5Ca\x18\n\x8f?'
p4437
tp4438
Rp4439
sg2007
g1978
(g1982
S'i\xe1/\x18~\t\x07@'
p4440
tp4441
Rp4442
sg2011
g1978
(g1982
S'\xe1\x81\xea\xcaR\xb7\x9e?'
p4443
tp4444
Rp4445
sg2000
I9
ssg2041
(dp4446
g1977
g1978
(g1982
S'\xec\x80\xac\x19k"\xe4?'
p4447
tp4448
Rp4449
sg1988
g1978
(g1982
S'\x98v\xbc\xf5\xd3D\xe5?'
p4450
tp4451
Rp4452
sg1992
(lp4453
g1978
(g1982
S'xxx:\x9cP\xdd?'
p4454
tp4455
Rp4456
ag1978
(g1982
S'\xfdy\xdcv\x8a\xba\xe7?'
p4457
tp4458
Rp4459
asg2000
I9
ssg2056
(dp4460
g2003
g1978
(g1982
S'\x132\x01\x05_\x15\x9d?'
p4461
tp4462
Rp4463
sg2007
g1978
(g1982
S'*\xe3\xb6\x85\xdc\x95\x15@'
p4464
tp4465
Rp4466
sg2011
g1978
(g1982
S')\x8ceS`\xd2\xa9?'
p4467
tp4468
Rp4469
sg2000
I9
ssg2067
(dp4470
g2003
g1978
(g1982
S'\xeb\xa8\xdc\xaeR-\xaf?'
p4471
tp4472
Rp4473
sg2007
g1978
(g1982
S"^\xc5\xc7]\xa3#'@"
p4474
tp4475
Rp4476
sg2011
g1978
(g1982
S'I\xbe\x14\xf1\xf6F\xb8?'
p4477
tp4478
Rp4479
sg2000
I15
ssg2078
(dp4480
g2003
g1978
(g1982
S"\xec~_\x1c0'\xc6?"
p4481
tp4482
Rp4483
sg2007
g1978
(g1982
S'3\xe0\x0e\xb5\x15q@@'
p4484
tp4485
Rp4486
sg2011
g1978
(g1982
S'(\xbb\x19@\x94p\xcc?'
p4487
tp4488
Rp4489
sg2000
I9
ssg2089
(dp4490
g2003
g1978
(g1982
S"\xec~_\x1c0'\xc6?"
p4491
tp4492
Rp4493
sg2007
g1978
(g1982
S'3\xe0\x0e\xb5\x15q@@'
p4494
tp4495
Rp4496
sg2011
g1978
(g1982
S'4\x81\x01V\xb7?\xcc?'
p4497
tp4498
Rp4499
sg2000
I9
ssg2100
(dp4500
g2003
g1978
(g1982
S'\x1a5Ca\x18\n\x8f?'
p4501
tp4502
Rp4503
sg2007
g1978
(g1982
S'i\xe1/\x18~\t\x07@'
p4504
tp4505
Rp4506
sg2011
g1978
(g1982
S'\xa0x\xa3\x1aBf\x9e?'
p4507
tp4508
Rp4509
sg2000
I9
ssg2111
(dp4510
g1977
g1978
(g1982
S'\x9b\xc0d\xeax\x84\xe5?'
p4511
tp4512
Rp4513
sg1988
g1978
(g1982
S'\xce\\\x18L?\x03\xea?'
p4514
tp4515
Rp4516
sg1992
(lp4517
g1978
(g1982
S'\xcdm\xcc\x8e\xefI\xc3?'
p4518
tp4519
Rp4520
ag1978
(g1982
S'\x80\x13>\xe5l\xa8\xec?'
p4521
tp4522
Rp4523
asg2000
I9
ssg2126
(dp4524
g2003
g1978
(g1982
S'\xc2\xa7\xce\xa3,x\xe0?'
p4525
tp4526
Rp4527
sg2007
g1978
(g1982
S'\x04\xc1&CbrX@'
p4528
tp4529
Rp4530
sg2011
g1978
(g1982
S'f\xba\xac`\xa3L\xe2?'
p4531
tp4532
Rp4533
sg2000
I9
ssg2137
(dp4534
g1977
g1978
(g1982
S'\x12\xcep\xbb\x9ds\xea?'
p4535
tp4536
Rp4537
sg1988
g1978
(g1982
S'7\x95\x9e\xaa\xf4\xd6\xeb?'
p4538
tp4539
Rp4540
sg1992
(lp4541
g1978
(g1982
S'\xee\x9f\xe0pA.\xe3?'
p4542
tp4543
Rp4544
ag1978
(g1982
S'\xec\x88I\x16.E\xed?'
p4545
tp4546
Rp4547
asg2000
I15
ssg2152
(dp4548
g2003
g1978
(g1982
S'\xebjT\x829\x18\xbc?'
p4549
tp4550
Rp4551
sg2007
g1978
(g1982
S'Z\xa7\xba\xae\xfa\xd94@'
p4552
tp4553
Rp4554
sg2011
g1978
(g1982
S'\xfa\xcfj\xf31\xc5\xc3?'
p4555
tp4556
Rp4557
sg2000
I9
ssg2163
(dp4558
g2003
g1978
(g1982
S'\xf21\xdb\xa1_a\x95?'
p4559
tp4560
Rp4561
sg2007
g1978
(g1982
S'#^A\xf4\x89\xbc\x0f@'
p4562
tp4563
Rp4564
sg2011
g1978
(g1982
S'\xcfk)\x009\x1c\xa4?'
p4565
tp4566
Rp4567
sg2000
I9
sssS'all_neurons'
p4568
(dp4569
g1975
(dp4570
g1977
g1978
(g1982
S'!h\x0cm\xcaW\xe2?'
p4571
tp4572
Rp4573
sg1988
g1978
(g1982
S'.~3%\x03>\xe2?'
p4574
tp4575
Rp4576
sg1992
(lp4577
g1978
(g1982
S'R\xee\x19(\x95;\xd1?'
p4578
tp4579
Rp4580
ag1978
(g1982
S'\xd44\x8eZ\x97A\xed?'
p4581
tp4582
Rp4583
asg2000
I645
ssg2001
(dp4584
g2003
g1978
(g1982
S'\x03\x01\x0f\x10\xa8\xca\xd1;'
p4585
tp4586
Rp4587
sg2007
g1978
(g1982
S'\x80E\xd6w\xd1hJ<'
p4588
tp4589
Rp4590
sg2011
g1978
(g1982
S'\x80E\xd6w\xd1h\x1a<'
p4591
tp4592
Rp4593
sg2000
I253
ssg2015
(dp4594
g1977
g1978
(g1982
S'\xb6W\xe0"\x1a\x90\xe6?'
p4595
tp4596
Rp4597
sg1988
g1978
(g1982
S'\xd6\xc2A\x01\xad\xe5\xe6?'
p4598
tp4599
Rp4600
sg1992
(lp4601
g1978
(g1982
S'\x1c\xc7\xc5u\x1ax\xdb?'
p4602
tp4603
Rp4604
ag1978
(g1982
S'8\xce\xfa\x83\xe0z\xee?'
p4605
tp4606
Rp4607
asg2000
I254
ssg2030
(dp4608
g2003
g1978
(g1982
S'.0\xcd\xe3\xd1.\xf99'
p4609
tp4610
Rp4611
sg2007
g1978
(g1982
S'\xc2I\x12\xc7\xbf\xb0r:'
p4612
tp4613
Rp4614
sg2011
g1978
(g1982
S'\x03\r\xc3^\xaa\xebX:'
p4615
tp4616
Rp4617
sg2000
I254
ssg2041
(dp4618
g1977
g1978
(g1982
S'\x91\r\x8c),\x14\xdd?'
p4619
tp4620
Rp4621
sg1988
g1978
(g1982
S'\xbe\x1a)\xd8\xee\x8d\xdc?'
p4622
tp4623
Rp4624
sg1992
(lp4625
g1978
(g1982
S'\xe6\x9f@qi\xb3\xb6?'
p4626
tp4627
Rp4628
ag1978
(g1982
S'\xb0\xe9\xf2\xf9W\x00\xec?'
p4629
tp4630
Rp4631
asg2000
I254
ssg2056
(dp4632
g2003
g1978
(g1982
S'~\xae\xdc\xce\r\xcf\x17='
p4633
tp4634
Rp4635
sg2007
g1978
(g1982
S'\x82\xc9\x87?\xac\xab\x91='
p4636
tp4637
Rp4638
sg2011
g1978
(g1982
S'\xa0\xd0\xba\xeb\x98\xbfU='
p4639
tp4640
Rp4641
sg2000
I253
ssg2067
(dp4642
g2003
g1978
(g1982
S'(\xe3"R\x16\x9aR7'
p4643
tp4644
Rp4645
sg2007
g1978
(g1982
S'/\xc9\xeb!\xb9\x9c\xcb7'
p4646
tp4647
Rp4648
sg2011
g1978
(g1982
S'/\xc9\xeb!\xb9\x9c\xcb7'
p4649
tp4650
Rp4651
sg2000
I645
ssg2078
(dp4652
g2003
g1978
(g1982
S'\xa45\xba\xc7qD\x9d='
p4653
tp4654
Rp4655
sg2007
g1978
(g1982
S'\xd03<r\xcc\xb8\x15>'
p4656
tp4657
Rp4658
sg2011
g1978
(g1982
S'\x87a\xd4\x1c\xc7J\xd2='
p4659
tp4660
Rp4661
sg2000
I254
ssg2089
(dp4662
g2003
g1978
(g1982
S'\x0c?\xf8T\xfa\x0e\xc8?'
p4663
tp4664
Rp4665
sg2007
g1978
(g1982
S'\xcb>\x10\xcb\x1d\xdbA@'
p4666
tp4667
Rp4668
sg2011
g1978
(g1982
S'\xcfN6\xea\xb8\x12\xce?'
p4669
tp4670
Rp4671
sg2000
I253
ssg2100
(dp4672
g2003
g1978
(g1982
S'\x1b\xca\xe3; xU9'
p4673
tp4674
Rp4675
sg2007
g1978
(g1982
S'\x00 \xe6\xd8O\xde\xcf9'
p4676
tp4677
Rp4678
sg2011
g1978
(g1982
S'\x00 \xe6\xd8O\xde\xbf9'
p4679
tp4680
Rp4681
sg2000
I254
ssg2111
(dp4682
g1977
g1978
(g1982
S'b\xa0\x9a\xb6\xe5\x19\xe3?'
p4683
tp4684
Rp4685
sg1988
g1978
(g1982
S'\xd5/\xa6.\x8c\x9c\xe3?'
p4686
tp4687
Rp4688
sg1992
(lp4689
g1978
(g1982
S'\x8c9 \x19&\xad\xc6?'
p4690
tp4691
Rp4692
ag1978
(g1982
S'\x9a\x9ec\xf6\x8f%\xee?'
p4693
tp4694
Rp4695
asg2000
I253
ssg2126
(dp4696
g2003
g1978
(g1982
S'\xe9\x867\x8f\xc4\x81i='
p4697
tp4698
Rp4699
sg2007
g1978
(g1982
S'!6K\xe2O\xee\xe2='
p4700
tp4701
Rp4702
sg2011
g1978
(g1982
S'\x88\xc9F <\xd1\xa1='
p4703
tp4704
Rp4705
sg2000
I253
ssg2137
(dp4706
g1977
g1978
(g1982
S's\xb5\xf62\xf1\xb8\xe5?'
p4707
tp4708
Rp4709
sg1988
g1978
(g1982
S'\x17\xe4o\x0c\x906\xe6?'
p4710
tp4711
Rp4712
sg1992
(lp4713
g1978
(g1982
S'\xbfPZ\xadPn\xd7?'
p4714
tp4715
Rp4716
ag1978
(g1982
S'\x0fs\x84Z\xfb\x90\xee?'
p4717
tp4718
Rp4719
asg2000
I645
ssg2152
(dp4720
g2003
g1978
(g1982
S'9e\xdc\x82\xbd9\xaf;'
p4721
tp4722
Rp4723
sg2007
g1978
(g1982
S" \x93\x1f\xa7\xda,'<"
p4724
tp4725
Rp4726
sg2011
g1978
(g1982
S'n:m\x9ag|\xfa;'
p4727
tp4728
Rp4729
sg2000
I254
ssg2163
(dp4730
g2003
g1978
(g1982
S'v\xab\xba\xac\xd8\x80<:'
p4731
tp4732
Rp4733
sg2007
g1978
(g1982
S"B\x8b2\xd0\xa0'\xb5:"
p4734
tp4735
Rp4736
sg2011
g1978
(g1982
S"B\x8b2\xd0\xa0'\x95:"
p4737
tp4738
Rp4739
sg2000
I254
sssg1967
(dp4740
g1975
(dp4741
g1977
g1978
(g1982
S'?\xdc\xbc\x95\xb3\xc1\xe1?'
p4742
tp4743
Rp4744
sg1988
g1978
(g1982
S'\xd6\xf6\x85\xa1\xbb\xbf\xe1?'
p4745
tp4746
Rp4747
sg1992
(lp4748
g1978
(g1982
S'\x11\xd95&6\t\xd5?'
p4749
tp4750
Rp4751
ag1978
(g1982
S'J{W\xcaV\x9f\xe9?'
p4752
tp4753
Rp4754
asg2000
I62
ssg2001
(dp4755
g2003
g1978
(g1982
S'\x0f\xd3Y8{\xe6i?'
p4756
tp4757
Rp4758
sg2007
g1978
(g1982
S'\xa5\xaa\xd2s\x0f9\xe3?'
p4759
tp4760
Rp4761
sg2011
g1978
(g1982
S'!\xb4\xd7\x9fF\x16\x81?'
p4762
tp4763
Rp4764
sg2000
I29
ssg2015
(dp4765
g1977
g1978
(g1982
S'C\xbe\xb9\xfc\xfb^\xe9?'
p4766
tp4767
Rp4768
sg1988
g1978
(g1982
S'R\xdaI\xaah\xda\xea?'
p4769
tp4770
Rp4771
sg1992
(lp4772
g1978
(g1982
S'\x82\xb3i8\xe1\x1f\xe2?'
p4773
tp4774
Rp4775
ag1978
(g1982
S'\xf8\nM\xbeg\xa3\xed?'
p4776
tp4777
Rp4778
asg2000
I29
ssg2030
(dp4779
g2003
g1978
(g1982
S'\xc4W:\xc8\xe1"\xd4>'
p4780
tp4781
Rp4782
sg2007
g1978
(g1982
S'G\x9a6%\xc7\xe3M?'
p4783
tp4784
Rp4785
sg2011
g1978
(g1982
S'\x0fg\x06\xe6\xe7\xfb\xfc>'
p4786
tp4787
Rp4788
sg2000
I29
ssg2041
(dp4789
g1977
g1978
(g1982
S'\xacq7k4P\xde?'
p4790
tp4791
Rp4792
sg1988
g1978
(g1982
S'\x07K\x16\x122\x1d\xdf?'
p4793
tp4794
Rp4795
sg1992
(lp4796
g1978
(g1982
S'\xd0w\xfb)\xff\xf5\xcb?'
p4797
tp4798
Rp4799
ag1978
(g1982
S'\xc4\xedG\xb5\xd1\xce\xe7?'
p4800
tp4801
Rp4802
asg2000
I29
ssg2056
(dp4803
g2003
g1978
(g1982
S'\xb7L\x83h\xb0&b?'
p4804
tp4805
Rp4806
sg2007
g1978
(g1982
S'\xe0\xe5"\xdbm\xf1\xda?'
p4807
tp4808
Rp4809
sg2011
g1978
(g1982
S'\x8b\xc3\xd6\x8d8\xa2x?'
p4810
tp4811
Rp4812
sg2000
I29
ssg2067
(dp4813
g2003
g1978
(g1982
S'o\xe9\xc1\x11\xf3\r\xea='
p4814
tp4815
Rp4816
sg2007
g1978
(g1982
S'@\xeb-gZVc>'
p4817
tp4818
Rp4819
sg2011
g1978
(g1982
S'3E\x16\xa5\x90\xf0\x1e>'
p4820
tp4821
Rp4822
sg2000
I62
ssg2078
(dp4823
g2003
g1978
(g1982
S'@a\x1e\x1c\xaf\xaa\xe1?'
p4824
tp4825
Rp4826
sg2007
g1978
(g1982
S'[\x18\xbd\xed[9Z@'
p4827
tp4828
Rp4829
sg2011
g1978
(g1982
S'\xec\x86\x15\x10\x1cg\xe3?'
p4830
tp4831
Rp4832
sg2000
I29
ssg2089
(dp4833
g2003
g1978
(g1982
S'\xa0!\xa9\x8d\xa2\x13q?'
p4834
tp4835
Rp4836
sg2007
g1978
(g1982
S'\xea\rGJ%Y\xe9?'
p4837
tp4838
Rp4839
sg2011
g1978
(g1982
S'\x08j\x131\x8bX\x85?'
p4840
tp4841
Rp4842
sg2000
I29
ssg2100
(dp4843
g2003
g1978
(g1982
S'\xddi\x9b\x1a*(\xd2>'
p4844
tp4845
Rp4846
sg2007
g1978
(g1982
S'$\xb1~\x7f\x9e\xf3J?'
p4847
tp4848
Rp4849
sg2011
g1978
(g1982
S'$\xb1~\x7f\x9e\xf3\xfa>'
p4850
tp4851
Rp4852
sg2000
I29
ssg2111
(dp4853
g1977
g1978
(g1982
S'\x9a\xf7Z\xa14\xb4\xe6?'
p4854
tp4855
Rp4856
sg1988
g1978
(g1982
S'\xe0\x8a\xb2\x1c\x13\x01\xe8?'
p4857
tp4858
Rp4859
sg1992
(lp4860
g1978
(g1982
S'\xc6\xbf\xed\x93\xe11\xdc?'
p4861
tp4862
Rp4863
ag1978
(g1982
S'\xfe\xdb\x80:O\xce\xec?'
p4864
tp4865
Rp4866
asg2000
I29
ssg2126
(dp4867
g2003
g1978
(g1982
S'Hw\xf9\x19\xb6*3?'
p4868
tp4869
Rp4870
sg2007
g1978
(g1982
S'\x0fM\x8eNfs\xac?'
p4871
tp4872
Rp4873
sg2011
g1978
(g1982
S'\xb8\x97F2`5R?'
p4874
tp4875
Rp4876
sg2000
I29
ssg2137
(dp4877
g1977
g1978
(g1982
S'\xa5\xab\xef\xdb\xe8\x0f\xe9?'
p4878
tp4879
Rp4880
sg1988
g1978
(g1982
S'\xa2M\x1c\xbfN?\xea?'
p4881
tp4882
Rp4883
sg1992
(lp4884
g1978
(g1982
S'\xcei\xdc?\x99\x84\xe2?'
p4885
tp4886
Rp4887
ag1978
(g1982
S'\xdd+T\xfe\x0c\xce\xed?'
p4888
tp4889
Rp4890
asg2000
I62
ssg2152
(dp4891
g2003
g1978
(g1982
S'\x19z&0\x15\xd3\xf0>'
p4892
tp4893
Rp4894
sg2007
g1978
(g1982
S'=\x1dysS\xf9h?'
p4895
tp4896
Rp4897
sg2011
g1978
(g1982
S'\xe2;?\xee\\\x99\x15?'
p4898
tp4899
Rp4900
sg2000
I29
ssg2163
(dp4901
g2003
g1978
(g1982
S"\xc7 \x16h'\xaf:?"
p4902
tp4903
Rp4904
sg2007
g1978
(g1982
S'Tl@?\xff\xcd\xb3?'
p4905
tp4906
Rp4907
sg2011
g1978
(g1982
S'\xa2q\xc5\x12\xff_X?'
p4908
tp4909
Rp4910
sg2000
I29
sssg1969
(dp4911
g1975
(dp4912
g1977
g1978
(g1982
S'\xa4&\x91\xf1\xc6\xb1\xe1?'
p4913
tp4914
Rp4915
sg1988
g1978
(g1982
S'\x18\x8b\x9a0\xa4\x17\xe2?'
p4916
tp4917
Rp4918
sg1992
(lp4919
g1978
(g1982
S'YJ\xa1B\xb2\x13\xdc?'
p4920
tp4921
Rp4922
ag1978
(g1982
S'x+\x95\xc1\x1a\xee\xe6?'
p4923
tp4924
Rp4925
asg2000
I18
ssg2001
(dp4926
g2003
g1978
(g1982
S'YB\x85O\xef\xda\xbb?'
p4927
tp4928
Rp4929
sg2007
g1978
(g1982
S'>\xe7\x04\x9d}\xac4@'
p4930
tp4931
Rp4932
sg2011
g1978
(g1982
S'\x06\xb2r\x9b\x7f\x00\xc5?'
p4933
tp4934
Rp4935
sg2000
I3
ssg2015
(dp4936
g1977
g1978
(g1982
S'\x99\x07!\x01\x93\xc8\xeb?'
p4937
tp4938
Rp4939
sg1988
g1978
(g1982
S'rY!\x08\x1b\x17\xeb?'
p4940
tp4941
Rp4942
sg1992
(lp4943
g1978
(g1982
S'I\xa0\xd8\x86\x96\xe6\xe9?'
p4944
tp4945
Rp4946
ag1978
(g1982
S'\xa15\xe9\xdc\xc9&\xee?'
p4947
tp4948
Rp4949
asg2000
I3
ssg2030
(dp4950
g2003
g1978
(g1982
S'YB\x85O\xef\xda\xbb?'
p4951
tp4952
Rp4953
sg2007
g1978
(g1982
S'>\xe7\x04\x9d}\xac4@'
p4954
tp4955
Rp4956
sg2011
g1978
(g1982
S'\xa7\xb4\xe6\xf0)\xd6\xc4?'
p4957
tp4958
Rp4959
sg2000
I3
ssg2041
(dp4960
g1977
g1978
(g1982
S'\xeb\xe3d^\x0c\xab\xe0?'
p4961
tp4962
Rp4963
sg1988
g1978
(g1982
S'bf\x056Lx\xe2?'
p4964
tp4965
Rp4966
sg1992
(lp4967
g1978
(g1982
S'B\xb8\xb9z5\x8d\xd9?'
p4968
tp4969
Rp4970
ag1978
(g1982
S'\x96\xc3\xaf\x1b\x9eL\xe3?'
p4971
tp4972
Rp4973
asg2000
I3
ssg2056
(dp4974
g2003
g1978
(g1982
S'YB\x85O\xef\xda\xbb?'
p4975
tp4976
Rp4977
sg2007
g1978
(g1982
S'>\xe7\x04\x9d}\xac4@'
p4978
tp4979
Rp4980
sg2011
g1978
(g1982
S'>\xe7\x04\x9d}\xac\xc4?'
p4981
tp4982
Rp4983
sg2000
I3
ssg2067
(dp4984
g2003
g1978
(g1982
S'\xa8t/\xa1R\xbf)?'
p4985
tp4986
Rp4987
sg2007
g1978
(g1982
S'\x958\xa1S\xff\x1b\xa3?'
p4988
tp4989
Rp4990
sg2011
g1978
(g1982
S'\x98C\x87\xd8A\x96J?'
p4991
tp4992
Rp4993
sg2000
I18
ssg2078
(dp4994
g2003
g1978
(g1982
S'YB\x85O\xef\xda\xbb?'
p4995
tp4996
Rp4997
sg2007
g1978
(g1982
S'>\xe7\x04\x9d}\xac4@'
p4998
tp4999
Rp5000
sg2011
g1978
(g1982
S'\x06N\xa6W\x11[\xc4?'
p5001
tp5002
Rp5003
sg2000
I3
ssg2089
(dp5004
g2003
g1978
(g1982
S'YB\x85O\xef\xda\xbb?'
p5005
tp5006
Rp5007
sg2007
g1978
(g1982
S'>\xe7\x04\x9d}\xac4@'
p5008
tp5009
Rp5010
sg2011
g1978
(g1982
S'd/_]\x86\xe5\xc3?'
p5011
tp5012
Rp5013
sg2000
I3
ssg2100
(dp5014
g2003
g1978
(g1982
S'YB\x85O\xef\xda\xbb?'
p5015
tp5016
Rp5017
sg2007
g1978
(g1982
S'>\xe7\x04\x9d}\xac4@'
p5018
tp5019
Rp5020
sg2011
g1978
(g1982
S'\xa9\x92J\xb7\x1c\x0c\xc4?'
p5021
tp5022
Rp5023
sg2000
I3
ssg2111
(dp5024
g1977
g1978
(g1982
S'\xa0\xac:Al<\xe8?'
p5025
tp5026
Rp5027
sg1988
g1978
(g1982
S'V\xa6\xf4\x1dtP\xe8?'
p5028
tp5029
Rp5030
sg1992
(lp5031
g1978
(g1982
S'\xe9\x8b\x0c\xa5\xfc\\\xe3?'
p5032
tp5033
Rp5034
ag1978
(g1982
S'%8\x80\\\xd6\r\xed?'
p5035
tp5036
Rp5037
asg2000
I3
ssg2126
(dp5038
g2003
g1978
(g1982
S'YB\x85O\xef\xda\xbb?'
p5039
tp5040
Rp5041
sg2007
g1978
(g1982
S'>\xe7\x04\x9d}\xac4@'
p5042
tp5043
Rp5044
sg2011
g1978
(g1982
S'\x06\x9c\xa5\xafv\x83\xc4?'
p5045
tp5046
Rp5047
sg2000
I3
ssg2137
(dp5048
g1977
g1978
(g1982
S'r\xaa\xb8&\x07\x01\xe9?'
p5049
tp5050
Rp5051
sg1988
g1978
(g1982
S'\xd82\x8a\x86\x1f\x7f\xea?'
p5052
tp5053
Rp5054
sg1992
(lp5055
g1978
(g1982
S'_\xfe\x98\xb6v\xbb\xe3?'
p5056
tp5057
Rp5058
ag1978
(g1982
S'\xf2-\xff\x98 \x0c\xec?'
p5059
tp5060
Rp5061
asg2000
I18
ssg2152
(dp5062
g2003
g1978
(g1982
S'YB\x85O\xef\xda\xbb?'
p5063
tp5064
Rp5065
sg2007
g1978
(g1982
S'>\xe7\x04\x9d}\xac4@'
p5066
tp5067
Rp5068
sg2011
g1978
(g1982
S'\x0e\x88\xba\xe1I3\xc4?'
p5069
tp5070
Rp5071
sg2000
I3
ssg2163
(dp5072
g2003
g1978
(g1982
S'6=\x05f\xb1\xf9\xe2?'
p5073
tp5074
Rp5075
sg2007
g1978
(g1982
S'\xdc\xc6oS\xa3*\\@'
p5076
tp5077
Rp5078
sg2011
g1978
(g1982
S'\xb0\xea\xad\x0f\x11\x9a\xe4?'
p5079
tp5080
Rp5081
sg2000
I3
sssg1971
(dp5082
g1975
(dp5083
g1977
g1978
(g1982
S"'\xc3Z9Z8\xdf?"
p5084
tp5085
Rp5086
sg1988
g1978
(g1982
S'\x92\x96\x9d\xea\xa9\x1a\xe1?'
p5087
tp5088
Rp5089
sg1992
(lp5090
g1978
(g1982
S'\xb2q\xe1i+^\xc1?'
p5091
tp5092
Rp5093
ag1978
(g1982
S'&\xcf\xcet%\xb6\xe6?'
p5094
tp5095
Rp5096
asg2000
I88
ssg2001
(dp5097
g2003
g1978
(g1982
S'\xa9\xb2|i\x15C\xc0>'
p5098
tp5099
Rp5100
sg2007
g1978
(g1982
S'3\x19\x95\xc8\x93#8?'
p5101
tp5102
Rp5103
sg2011
g1978
(g1982
S'mbx\t\xd8\xa2\xea>'
p5104
tp5105
Rp5106
sg2000
I38
ssg2015
(dp5107
g1977
g1978
(g1982
S'\xe7\xb5\xc4s\xcd\xbb\xe3?'
p5108
tp5109
Rp5110
sg1988
g1978
(g1982
S'6\x96O%<\xe5\xe4?'
p5111
tp5112
Rp5113
sg1992
(lp5114
g1978
(g1982
S'*\x18d\xad\x07\xec\xda?'
p5115
tp5116
Rp5117
ag1978
(g1982
S'B\xb9\x0c\xf8\xa2\xd0\xe9?'
p5118
tp5119
Rp5120
asg2000
I38
ssg2030
(dp5121
g2003
g1978
(g1982
S'\xae\x91\xd5\xf4p) ?'
p5122
tp5123
Rp5124
sg2007
g1978
(g1982
S'>\x04m\xab\x83\xfd\x97?'
p5125
tp5126
Rp5127
sg2011
g1978
(g1982
S';\x03\x90\xbf?GB?'
p5128
tp5129
Rp5130
sg2000
I38
ssg2041
(dp5131
g1977
g1978
(g1982
S'b\r5\xe6Uk\xd7?'
p5132
tp5133
Rp5134
sg1988
g1978
(g1982
S'\xfe\xcb\x8aD\xb9\xb5\xd7?'
p5135
tp5136
Rp5137
sg1992
(lp5138
g1978
(g1982
S'H\xe8\xf6m\xed\xc6\xb5?'
p5139
tp5140
Rp5141
ag1978
(g1982
S'V\x07\xeb\x97\xb5\x14\xe4?'
p5142
tp5143
Rp5144
asg2000
I38
ssg2056
(dp5145
g2003
g1978
(g1982
S'f\xda\xab\xf6&\xdcQ?'
p5146
tp5147
Rp5148
sg2007
g1978
(g1982
S"/\x18'\xd6\xc9\x82\xca?"
p5149
tp5150
Rp5151
sg2011
g1978
(g1982
S'1\x00\xbd\x92\xb7]k?'
p5152
tp5153
Rp5154
sg2000
I38
ssg2067
(dp5155
g2003
g1978
(g1982
S'\xcd\xe3\xd2pbV\x10?'
p5156
tp5157
Rp5158
sg2007
g1978
(g1982
S'$\ny\x1f:@\x88?'
p5159
tp5160
Rp5161
sg2011
g1978
(g1982
S'\t\x8b\x13\x0cr\xed2?'
p5162
tp5163
Rp5164
sg2000
I88
ssg2078
(dp5165
g2003
g1978
(g1982
S'\x02\xc6=QwW\xf1>'
p5166
tp5167
Rp5168
sg2007
g1978
(g1982
S'\xeb\xb1\x97\x1c\xd5\xbdi?'
p5169
tp5170
Rp5171
sg2011
g1978
(g1982
S'\x837\x8d%U\xad\x15?'
p5172
tp5173
Rp5174
sg2000
I38
ssg2089
(dp5175
g2003
g1978
(g1982
S'T\xc1\x9e\xed\x01\x04\xcc?'
p5176
tp5177
Rp5178
sg2007
g1978
(g1982
S'|\xd3[n\xf9\xcaD@'
p5179
tp5180
Rp5181
sg2011
g1978
(g1982
S'~v\x06\x1e\xbf+\xd1?'
p5182
tp5183
Rp5184
sg2000
I38
ssg2100
(dp5185
g2003
g1978
(g1982
S'\x17\x83\xb0\xc2w=\xec>'
p5186
tp5187
Rp5188
sg2007
g1978
(g1982
S'K\x01\x7f\xe2\x9e\xf5d?'
p5189
tp5190
Rp5191
sg2011
g1978
(g1982
S'\xedrT\xc9p\xa1\x12?'
p5192
tp5193
Rp5194
sg2000
I38
ssg2111
(dp5195
g1977
g1978
(g1982
S'\xaf\xfc\x82\xdfA\x1d\xdd?'
p5196
tp5197
Rp5198
sg1988
g1978
(g1982
S'J\x127fx\n\xe0?'
p5199
tp5200
Rp5201
sg1992
(lp5202
g1978
(g1982
S'\x00\x00\x00\x00\x00\x00\x00\x00'
p5203
tp5204
Rp5205
ag1978
(g1982
S'56\x134\x16\xad\xe6?'
p5206
tp5207
Rp5208
asg2000
I38
ssg2126
(dp5209
g2003
g1978
(g1982
S'\xf1\x1c*\xcb!\x1a\xb1?'
p5210
tp5211
Rp5212
sg2007
g1978
(g1982
S'\xf6\x82\x92)\xcab)@'
p5213
tp5214
Rp5215
sg2011
g1978
(g1982
S'\x19\x9d\x02\xd8\xf7j\xba?'
p5216
tp5217
Rp5218
sg2000
I38
ssg2137
(dp5219
g1977
g1978
(g1982
S'Om\x92\x08U\xbc\xe2?'
p5220
tp5221
Rp5222
sg1988
g1978
(g1982
S'f\t\x9c\xa3\xf3b\xe3?'
p5223
tp5224
Rp5225
sg1992
(lp5226
g1978
(g1982
S'a*^bdv\xd4?'
p5227
tp5228
Rp5229
ag1978
(g1982
S'\xd4O\x03@\xcc\xa7\xea?'
p5230
tp5231
Rp5232
asg2000
I88
ssg2152
(dp5233
g2003
g1978
(g1982
S'\xda\xd7\n\xf5S\xb32?'
p5234
tp5235
Rp5236
sg2007
g1978
(g1982
S'h\x18\xbc\x9f0\xc2\xab?'
p5237
tp5238
Rp5239
sg2011
g1978
(g1982
S"\xf6>'\xf0\xc6 R?"
p5240
tp5241
Rp5242
sg2000
I38
ssg2163
(dp5243
g2003
g1978
(g1982
S'\xed\xdf\xeb\x8b\xd1\xab\xeb>'
p5244
tp5245
Rp5246
sg2007
g1978
(g1982
S'2\x10\xd9\x85\x85\x89d?'
p5247
tp5248
Rp5249
sg2011
g1978
(g1982
S'\xcf\x0e`z\xe0\xc6\x12?'
p5250
tp5251
Rp5252
sg2000
I38
ssstp5253
.